(dp0
S'BMI'
p1
(lp2
(cnumpy.core.multiarray
scalar
p3
(cnumpy
dtype
p4
(S'f8'
p5
I0
I1
tp6
Rp7
(I3
S'<'
p8
NNNI-1
I-1
I0
tp9
bS'SB\xa2}r<\xb3?'
p10
tp11
Rp12
g3
(g7
S'fffff\xe65@'
p13
tp14
Rp15
tp16
a(g3
(g7
S"\x12'\xe09\xc6b\xb6?"
p17
tp18
Rp19
g3
(g7
S'\x00\x00\x00\x00\x00\x805@'
p20
tp21
Rp22
tp23
asS'number_of_lymphnodes_examined'
p24
(lp25
(g3
(g7
S'Y\xde\x01\xf8\xa0\x9e\xba?'
p26
tp27
Rp28
g3
(g4
(S'i8'
p29
I0
I1
tp30
Rp31
(I3
S'<'
p32
NNNI-1
I-1
I0
tp33
bS'\x18\x00\x00\x00\x00\x00\x00\x00'
p34
tp35
Rp36
tp37
asS'avg_percent_tumor_cells'
p38
(lp39
(g3
(g7
S'\xe8\x0f\x94\xe5K\xa8\xb3?'
p40
tp41
Rp42
g3
(g7
S'\x00\x00\x00\x00\x00\xc0W@'
p43
tp44
Rp45
tp46
as.