ccopy_reg
_reconstructor
p0
(c__main__
Node
p1
c__builtin__
object
p2
Ntp3
Rp4
(dp5
S'classification'
p6
NsS'right'
p7
g0
(g1
g2
Ntp8
Rp9
(dp10
g6
Nsg7
g0
(g1
g2
Ntp11
Rp12
(dp13
g6
Nsg7
g0
(g1
g2
Ntp14
Rp15
(dp16
g6
Nsg7
g0
(g1
g2
Ntp17
Rp18
(dp19
g6
Nsg7
g0
(g1
g2
Ntp20
Rp21
(dp22
g6
Nsg7
g0
(g1
g2
Ntp23
Rp24
(dp25
g6
Nsg7
g0
(g1
g2
Ntp26
Rp27
(dp28
g6
Nsg7
g0
(g1
g2
Ntp29
Rp30
(dp31
g6
Nsg7
g0
(g1
g2
Ntp32
Rp33
(dp34
g6
Nsg7
g0
(g1
g2
Ntp35
Rp36
(dp37
g6
Nsg7
g0
(g1
g2
Ntp38
Rp39
(dp40
g6
Nsg7
g0
(g1
g2
Ntp41
Rp42
(dp43
g6
Nsg7
g0
(g1
g2
Ntp44
Rp45
(dp46
g6
Nsg7
g0
(g1
g2
Ntp47
Rp48
(dp49
g6
Nsg7
g0
(g1
g2
Ntp50
Rp51
(dp52
g6
Nsg7
g0
(g1
g2
Ntp53
Rp54
(dp55
g6
Nsg7
g0
(g1
g2
Ntp56
Rp57
(dp58
g6
Nsg7
g0
(g1
g2
Ntp59
Rp60
(dp61
g6
Nsg7
g0
(g1
g2
Ntp62
Rp63
(dp64
g6
Nsg7
g0
(g1
g2
Ntp65
Rp66
(dp67
g6
Nsg7
g0
(g1
g2
Ntp68
Rp69
(dp70
g6
Nsg7
g0
(g1
g2
Ntp71
Rp72
(dp73
g6
Nsg7
g0
(g1
g2
Ntp74
Rp75
(dp76
g6
I0
sg7
NsS'feature_value'
p77
NsS'feature_index'
p78
NsS'left'
p79
Nsbsg77
cnumpy.core.multiarray
scalar
p80
(cnumpy
dtype
p81
(S'i8'
p82
I0
I1
tp83
Rp84
(I3
S'<'
p85
NNNI-1
I-1
I0
tp86
bS'\x00\x00\x00\x00\x00\x00\x00\x00'
p87
tp88
Rp89
sg78
S'stage_threeC'
p90
sg79
g0
(g1
g2
Ntp91
Rp92
(dp93
g6
I1
sg7
Nsg77
Nsg78
Nsg79
Nsbsbsg77
g80
(g84
S'\x00\x00\x00\x00\x00\x00\x00\x00'
p94
tp95
Rp96
sg78
S'stage_threeA'
p97
sg79
g0
(g1
g2
Ntp98
Rp99
(dp100
g6
I1
sg7
Nsg77
Nsg78
Nsg79
Nsbsbsg77
g80
(g84
S'\x00\x00\x00\x00\x00\x00\x00\x00'
p101
tp102
Rp103
sg78
S'stage_twoC'
p104
sg79
g0
(g1
g2
Ntp105
Rp106
(dp107
g6
I1
sg7
Nsg77
Nsg78
Nsg79
Nsbsbsg77
g80
(g84
S'\x00\x00\x00\x00\x00\x00\x00\x00'
p108
tp109
Rp110
sg78
S'stage_twoB'
p111
sg79
g0
(g1
g2
Ntp112
Rp113
(dp114
g6
I1
sg7
Nsg77
Nsg78
Nsg79
Nsbsbsg77
g80
(g84
S'\x00\x00\x00\x00\x00\x00\x00\x00'
p115
tp116
Rp117
sg78
S'stage_two'
p118
sg79
g0
(g1
g2
Ntp119
Rp120
(dp121
g6
I1
sg7
Nsg77
Nsg78
Nsg79
Nsbsbsg77
g80
(g84
S'\x00\x00\x00\x00\x00\x00\x00\x00'
p122
tp123
Rp124
sg78
S'stage_oneA'
p125
sg79
g0
(g1
g2
Ntp126
Rp127
(dp128
g6
I1
sg7
Nsg77
Nsg78
Nsg79
Nsbsbsg77
g80
(g81
(S'f8'
p129
I0
I1
tp130
Rp131
(I3
S'<'
p132
NNNI-1
I-1
I0
tp133
bS'\x00\x00\x00\x00\x00\x00\xf0?'
p134
tp135
Rp136
sg78
S'bias'
p137
sg79
g0
(g1
g2
Ntp138
Rp139
(dp140
g6
I1
sg7
Nsg77
Nsg78
Nsg79
Nsbsbsg77
g80
(g84
S'\x00\x00\x00\x00\x00\x00\x00\x00'
p141
tp142
Rp143
sg78
S'pathologic_stage'
p144
sg79
g0
(g1
g2
Ntp145
Rp146
(dp147
g6
I1
sg7
Nsg77
Nsg78
Nsg79
Nsbsbsg77
g80
(g131
S'\x00\x00\x00\x00\x00\x00\x00\x00'
p148
tp149
Rp150
sg78
S'avg_percent_monocyte_infiltration'
p151
sg79
g0
(g1
g2
Ntp152
Rp153
(dp154
g6
I1
sg7
Nsg77
Nsg78
Nsg79
Nsbsbsg77
g80
(g84
S'\x00\x00\x00\x00\x00\x00\x00\x00'
p155
tp156
Rp157
sg78
S'stage_twoA'
p158
sg79
g0
(g1
g2
Ntp159
Rp160
(dp161
g6
I1
sg7
Nsg77
Nsg78
Nsg79
Nsbsbsg77
g80
(g131
S'\x00\x00\x00\x00\x00\x80V@'
p162
tp163
Rp164
sg78
S'avg_percent_tumor_cells'
p165
sg79
g0
(g1
g2
Ntp166
Rp167
(dp168
g6
Nsg7
g0
(g1
g2
Ntp169
Rp170
(dp171
g6
Nsg7
g0
(g1
g2
Ntp172
Rp173
(dp174
g6
Nsg7
g0
(g1
g2
Ntp175
Rp176
(dp177
g6
Nsg7
g0
(g1
g2
Ntp178
Rp179
(dp180
g6
Nsg7
g0
(g1
g2
Ntp181
Rp182
(dp183
g6
Nsg7
g0
(g1
g2
Ntp184
Rp185
(dp186
g6
Nsg7
g0
(g1
g2
Ntp187
Rp188
(dp189
g6
Nsg7
g0
(g1
g2
Ntp190
Rp191
(dp192
g6
Nsg7
g0
(g1
g2
Ntp193
Rp194
(dp195
g6
Nsg7
g0
(g1
g2
Ntp196
Rp197
(dp198
g6
I1
sg7
Nsg77
Nsg78
Nsg79
Nsbsg77
g80
(g84
S'\x00\x00\x00\x00\x00\x00\x00\x00'
p199
tp200
Rp201
sg78
g90
sg79
g0
(g1
g2
Ntp202
Rp203
(dp204
g6
I1
sg7
Nsg77
Nsg78
Nsg79
Nsbsbsg77
g80
(g84
S'\x00\x00\x00\x00\x00\x00\x00\x00'
p205
tp206
Rp207
sg78
g97
sg79
g0
(g1
g2
Ntp208
Rp209
(dp210
g6
I1
sg7
Nsg77
Nsg78
Nsg79
Nsbsbsg77
g80
(g84
S'\x00\x00\x00\x00\x00\x00\x00\x00'
p211
tp212
Rp213
sg78
g104
sg79
g0
(g1
g2
Ntp214
Rp215
(dp216
g6
I1
sg7
Nsg77
Nsg78
Nsg79
Nsbsbsg77
g80
(g84
S'\x00\x00\x00\x00\x00\x00\x00\x00'
p217
tp218
Rp219
sg78
g111
sg79
g0
(g1
g2
Ntp220
Rp221
(dp222
g6
I1
sg7
Nsg77
Nsg78
Nsg79
Nsbsbsg77
g80
(g84
S'\x00\x00\x00\x00\x00\x00\x00\x00'
p223
tp224
Rp225
sg78
g158
sg79
g0
(g1
g2
Ntp226
Rp227
(dp228
g6
I1
sg7
Nsg77
Nsg78
Nsg79
Nsbsbsg77
g80
(g84
S'\x00\x00\x00\x00\x00\x00\x00\x00'
p229
tp230
Rp231
sg78
g118
sg79
g0
(g1
g2
Ntp232
Rp233
(dp234
g6
I1
sg7
Nsg77
Nsg78
Nsg79
Nsbsbsg77
g80
(g84
S'\x00\x00\x00\x00\x00\x00\x00\x00'
p235
tp236
Rp237
sg78
g125
sg79
g0
(g1
g2
Ntp238
Rp239
(dp240
g6
I1
sg7
Nsg77
Nsg78
Nsg79
Nsbsbsg77
g80
(g131
S'\x00\x00\x00\x00\x00\x00\xf0?'
p241
tp242
Rp243
sg78
g137
sg79
g0
(g1
g2
Ntp244
Rp245
(dp246
g6
I1
sg7
Nsg77
Nsg78
Nsg79
Nsbsbsg77
g80
(g84
S'\x00\x00\x00\x00\x00\x00\x00\x00'
p247
tp248
Rp249
sg78
g144
sg79
g0
(g1
g2
Ntp250
Rp251
(dp252
g6
I1
sg7
Nsg77
Nsg78
Nsg79
Nsbsbsg77
g80
(g131
S'\x00\x00\x00\x00\x00\x004@'
p253
tp254
Rp255
sg78
g151
sg79
g0
(g1
g2
Ntp256
Rp257
(dp258
g6
Nsg7
g0
(g1
g2
Ntp259
Rp260
(dp261
g6
Nsg7
g0
(g1
g2
Ntp262
Rp263
(dp264
g6
Nsg7
g0
(g1
g2
Ntp265
Rp266
(dp267
g6
Nsg7
g0
(g1
g2
Ntp268
Rp269
(dp270
g6
Nsg7
g0
(g1
g2
Ntp271
Rp272
(dp273
g6
Nsg7
g0
(g1
g2
Ntp274
Rp275
(dp276
g6
Nsg7
g0
(g1
g2
Ntp277
Rp278
(dp279
g6
Nsg7
g0
(g1
g2
Ntp280
Rp281
(dp282
g6
Nsg7
g0
(g1
g2
Ntp283
Rp284
(dp285
g6
I0
sg7
Nsg77
Nsg78
Nsg79
Nsbsg77
g80
(g84
S'\x00\x00\x00\x00\x00\x00\x00\x00'
p286
tp287
Rp288
sg78
g90
sg79
g0
(g1
g2
Ntp289
Rp290
(dp291
g6
I1
sg7
Nsg77
Nsg78
Nsg79
Nsbsbsg77
g80
(g84
S'\x00\x00\x00\x00\x00\x00\x00\x00'
p292
tp293
Rp294
sg78
g97
sg79
g0
(g1
g2
Ntp295
Rp296
(dp297
g6
I1
sg7
Nsg77
Nsg78
Nsg79
Nsbsbsg77
g80
(g84
S'\x00\x00\x00\x00\x00\x00\x00\x00'
p298
tp299
Rp300
sg78
g104
sg79
g0
(g1
g2
Ntp301
Rp302
(dp303
g6
I1
sg7
Nsg77
Nsg78
Nsg79
Nsbsbsg77
g80
(g84
S'\x00\x00\x00\x00\x00\x00\x00\x00'
p304
tp305
Rp306
sg78
g111
sg79
g0
(g1
g2
Ntp307
Rp308
(dp309
g6
I1
sg7
Nsg77
Nsg78
Nsg79
Nsbsbsg77
g80
(g84
S'\x00\x00\x00\x00\x00\x00\x00\x00'
p310
tp311
Rp312
sg78
g158
sg79
g0
(g1
g2
Ntp313
Rp314
(dp315
g6
I1
sg7
Nsg77
Nsg78
Nsg79
Nsbsbsg77
g80
(g84
S'\x00\x00\x00\x00\x00\x00\x00\x00'
p316
tp317
Rp318
sg78
g125
sg79
g0
(g1
g2
Ntp319
Rp320
(dp321
g6
I1
sg7
Nsg77
Nsg78
Nsg79
Nsbsbsg77
g80
(g131
S'\x00\x00\x00\x00\x00\x00\xf0?'
p322
tp323
Rp324
sg78
g137
sg79
g0
(g1
g2
Ntp325
Rp326
(dp327
g6
I1
sg7
Nsg77
Nsg78
Nsg79
Nsbsbsg77
g80
(g84
S'\x00\x00\x00\x00\x00\x00\x00\x00'
p328
tp329
Rp330
sg78
g144
sg79
g0
(g1
g2
Ntp331
Rp332
(dp333
g6
I1
sg7
Nsg77
Nsg78
Nsg79
Nsbsbsg77
g80
(g84
S'\x00\x00\x00\x00\x00\x00\x00\x00'
p334
tp335
Rp336
sg78
g118
sg79
g0
(g1
g2
Ntp337
Rp338
(dp339
g6
I1
sg7
Nsg77
Nsg78
Nsg79
Nsbsbsbsbsg77
g80
(g84
S'\x00\x00\x00\x00\x00\x00\x00\x00'
p340
tp341
Rp342
sg78
S'stage_fourA'
p343
sg79
g0
(g1
g2
Ntp344
Rp345
(dp346
g6
I1
sg7
Nsg77
Nsg78
Nsg79
Nsbsbsg77
g80
(g84
S'\x00\x00\x00\x00\x00\x00\x00\x00'
p347
tp348
Rp349
sg78
S'stage_four'
p350
sg79
g0
(g1
g2
Ntp351
Rp352
(dp353
g6
I1
sg7
Nsg77
Nsg78
Nsg79
Nsbsbsg77
g80
(g131
S'\x00\x00\x00\x00\x00\x00\x14@'
p354
tp355
Rp356
sg78
S'age_at_initial_pathologic_diagnosis'
p357
sg79
g0
(g1
g2
Ntp358
Rp359
(dp360
g6
Nsg7
g0
(g1
g2
Ntp361
Rp362
(dp363
g6
Nsg7
g0
(g1
g2
Ntp364
Rp365
(dp366
g6
Nsg7
g0
(g1
g2
Ntp367
Rp368
(dp369
g6
Nsg7
g0
(g1
g2
Ntp370
Rp371
(dp372
g6
Nsg7
g0
(g1
g2
Ntp373
Rp374
(dp375
g6
Nsg7
g0
(g1
g2
Ntp376
Rp377
(dp378
g6
Nsg7
g0
(g1
g2
Ntp379
Rp380
(dp381
g6
Nsg7
g0
(g1
g2
Ntp382
Rp383
(dp384
g6
Nsg7
g0
(g1
g2
Ntp385
Rp386
(dp387
g6
Nsg7
g0
(g1
g2
Ntp388
Rp389
(dp390
g6
Nsg7
g0
(g1
g2
Ntp391
Rp392
(dp393
g6
Nsg7
g0
(g1
g2
Ntp394
Rp395
(dp396
g6
Nsg7
g0
(g1
g2
Ntp397
Rp398
(dp399
g6
I0
sg7
Nsg77
Nsg78
Nsg79
Nsbsg77
g80
(g84
S'\x00\x00\x00\x00\x00\x00\x00\x00'
p400
tp401
Rp402
sg78
g90
sg79
g0
(g1
g2
Ntp403
Rp404
(dp405
g6
I1
sg7
Nsg77
Nsg78
Nsg79
Nsbsbsg77
g80
(g84
S'\x00\x00\x00\x00\x00\x00\x00\x00'
p406
tp407
Rp408
sg78
g97
sg79
g0
(g1
g2
Ntp409
Rp410
(dp411
g6
I1
sg7
Nsg77
Nsg78
Nsg79
Nsbsbsg77
g80
(g84
S'\x00\x00\x00\x00\x00\x00\x00\x00'
p412
tp413
Rp414
sg78
g104
sg79
g0
(g1
g2
Ntp415
Rp416
(dp417
g6
I1
sg7
Nsg77
Nsg78
Nsg79
Nsbsbsg77
g80
(g84
S'\x00\x00\x00\x00\x00\x00\x00\x00'
p418
tp419
Rp420
sg78
g111
sg79
g0
(g1
g2
Ntp421
Rp422
(dp423
g6
I1
sg7
Nsg77
Nsg78
Nsg79
Nsbsbsg77
g80
(g84
S'\x00\x00\x00\x00\x00\x00\x00\x00'
p424
tp425
Rp426
sg78
g125
sg79
g0
(g1
g2
Ntp427
Rp428
(dp429
g6
I1
sg7
Nsg77
Nsg78
Nsg79
Nsbsbsg77
g80
(g131
S'\x00\x00\x00\x00\x00\x00\xf0?'
p430
tp431
Rp432
sg78
g137
sg79
g0
(g1
g2
Ntp433
Rp434
(dp435
g6
I1
sg7
Nsg77
Nsg78
Nsg79
Nsbsbsg77
g80
(g84
S'\x00\x00\x00\x00\x00\x00\x00\x00'
p436
tp437
Rp438
sg78
g144
sg79
g0
(g1
g2
Ntp439
Rp440
(dp441
g6
I1
sg7
Nsg77
Nsg78
Nsg79
Nsbsbsg77
g80
(g131
S'\x00\x00\x00\x00\x00\xc0X@'
p442
tp443
Rp444
sg78
g165
sg79
g0
(g1
g2
Ntp445
Rp446
(dp447
g6
Nsg7
g0
(g1
g2
Ntp448
Rp449
(dp450
g6
Nsg7
g0
(g1
g2
Ntp451
Rp452
(dp453
g6
Nsg7
g0
(g1
g2
Ntp454
Rp455
(dp456
g6
Nsg7
g0
(g1
g2
Ntp457
Rp458
(dp459
g6
Nsg7
g0
(g1
g2
Ntp460
Rp461
(dp462
g6
Nsg7
g0
(g1
g2
Ntp463
Rp464
(dp465
g6
Nsg7
g0
(g1
g2
Ntp466
Rp467
(dp468
g6
I0
sg7
Nsg77
Nsg78
Nsg79
Nsbsg77
g80
(g84
S'\x00\x00\x00\x00\x00\x00\x00\x00'
p469
tp470
Rp471
sg78
g90
sg79
g0
(g1
g2
Ntp472
Rp473
(dp474
g6
I1
sg7
Nsg77
Nsg78
Nsg79
Nsbsbsg77
g80
(g84
S'\x00\x00\x00\x00\x00\x00\x00\x00'
p475
tp476
Rp477
sg78
g97
sg79
g0
(g1
g2
Ntp478
Rp479
(dp480
g6
I1
sg7
Nsg77
Nsg78
Nsg79
Nsbsbsg77
g80
(g84
S'\x00\x00\x00\x00\x00\x00\x00\x00'
p481
tp482
Rp483
sg78
g104
sg79
g0
(g1
g2
Ntp484
Rp485
(dp486
g6
I1
sg7
Nsg77
Nsg78
Nsg79
Nsbsbsg77
g80
(g84
S'\x00\x00\x00\x00\x00\x00\x00\x00'
p487
tp488
Rp489
sg78
g111
sg79
g0
(g1
g2
Ntp490
Rp491
(dp492
g6
I1
sg7
Nsg77
Nsg78
Nsg79
Nsbsbsg77
g80
(g84
S'\x00\x00\x00\x00\x00\x00\x00\x00'
p493
tp494
Rp495
sg78
g125
sg79
g0
(g1
g2
Ntp496
Rp497
(dp498
g6
I1
sg7
Nsg77
Nsg78
Nsg79
Nsbsbsg77
g80
(g131
S'\x00\x00\x00\x00\x00\x00\xf0?'
p499
tp500
Rp501
sg78
g137
sg79
g0
(g1
g2
Ntp502
Rp503
(dp504
g6
I1
sg7
Nsg77
Nsg78
Nsg79
Nsbsbsg77
g80
(g84
S'\x00\x00\x00\x00\x00\x00\x00\x00'
p505
tp506
Rp507
sg78
g144
sg79
g0
(g1
g2
Ntp508
Rp509
(dp510
g6
I1
sg7
Nsg77
Nsg78
Nsg79
Nsbsbsbsg77
g80
(g84
S'\x00\x00\x00\x00\x00\x00\x00\x00'
p511
tp512
Rp513
sg78
g343
sg79
g0
(g1
g2
Ntp514
Rp515
(dp516
g6
I1
sg7
Nsg77
Nsg78
Nsg79
Nsbsbsg77
g80
(g84
S'\x00\x00\x00\x00\x00\x00\x00\x00'
p517
tp518
Rp519
sg78
g350
sg79
g0
(g1
g2
Ntp520
Rp521
(dp522
g6
I1
sg7
Nsg77
Nsg78
Nsg79
Nsbsbsg77
g80
(g84
S'\x00\x00\x00\x00\x00\x00\x00\x00'
p523
tp524
Rp525
sg78
g158
sg79
g0
(g1
g2
Ntp526
Rp527
(dp528
g6
I1
sg7
Nsg77
Nsg78
Nsg79
Nsbsbsg77
g80
(g84
S'\x00\x00\x00\x00\x00\x00\x00\x00'
p529
tp530
Rp531
sg78
g118
sg79
g0
(g1
g2
Ntp532
Rp533
(dp534
g6
I1
sg7
Nsg77
Nsg78
Nsg79
Nsbsbsg77
g80
(g131
S'\x00\x00\x00\x00\x00\x00\x00\x00'
p535
tp536
Rp537
sg78
g151
sg79
g0
(g1
g2
Ntp538
Rp539
(dp540
g6
I1
sg7
Nsg77
Nsg78
Nsg79
Nsbsbsbsg77
g80
(g84
S'\x00\x00\x00\x00\x00\x00\x00\x00'
p541
tp542
Rp543
sg78
S'stage_threeB'
p544
sg79
g0
(g1
g2
Ntp545
Rp546
(dp547
g6
I1
sg7
Nsg77
Nsg78
Nsg79
Nsbsbsg77
g80
(g84
S's7X\x00\x00\x00\x00\x00'
p548
tp549
Rp550
sg78
S'NearestMutation'
p551
sg79
g0
(g1
g2
Ntp552
Rp553
(dp554
g6
Nsg7
g0
(g1
g2
Ntp555
Rp556
(dp557
g6
Nsg7
g0
(g1
g2
Ntp558
Rp559
(dp560
g6
Nsg7
g0
(g1
g2
Ntp561
Rp562
(dp563
g6
Nsg7
g0
(g1
g2
Ntp564
Rp565
(dp566
g6
Nsg7
g0
(g1
g2
Ntp567
Rp568
(dp569
g6
Nsg7
g0
(g1
g2
Ntp570
Rp571
(dp572
g6
Nsg7
g0
(g1
g2
Ntp573
Rp574
(dp575
g6
Nsg7
g0
(g1
g2
Ntp576
Rp577
(dp578
g6
Nsg7
g0
(g1
g2
Ntp579
Rp580
(dp581
g6
Nsg7
g0
(g1
g2
Ntp582
Rp583
(dp584
g6
Nsg7
g0
(g1
g2
Ntp585
Rp586
(dp587
g6
Nsg7
g0
(g1
g2
Ntp588
Rp589
(dp590
g6
Nsg7
g0
(g1
g2
Ntp591
Rp592
(dp593
g6
Nsg7
g0
(g1
g2
Ntp594
Rp595
(dp596
g6
Nsg7
g0
(g1
g2
Ntp597
Rp598
(dp599
g6
I0
sg7
Nsg77
Nsg78
Nsg79
Nsbsg77
g80
(g84
S'\x00\x00\x00\x00\x00\x00\x00\x00'
p600
tp601
Rp602
sg78
g343
sg79
g0
(g1
g2
Ntp603
Rp604
(dp605
g6
I1
sg7
Nsg77
Nsg78
Nsg79
Nsbsbsg77
g80
(g84
S'\x00\x00\x00\x00\x00\x00\x00\x00'
p606
tp607
Rp608
sg78
g350
sg79
g0
(g1
g2
Ntp609
Rp610
(dp611
g6
I1
sg7
Nsg77
Nsg78
Nsg79
Nsbsbsg77
g80
(g84
S'\x00\x00\x00\x00\x00\x00\x00\x00'
p612
tp613
Rp614
sg78
g90
sg79
g0
(g1
g2
Ntp615
Rp616
(dp617
g6
I1
sg7
Nsg77
Nsg78
Nsg79
Nsbsbsg77
g80
(g84
S'\x00\x00\x00\x00\x00\x00\x00\x00'
p618
tp619
Rp620
sg78
g97
sg79
g0
(g1
g2
Ntp621
Rp622
(dp623
g6
I1
sg7
Nsg77
Nsg78
Nsg79
Nsbsbsg77
g80
(g84
S'\x00\x00\x00\x00\x00\x00\x00\x00'
p624
tp625
Rp626
sg78
g104
sg79
g0
(g1
g2
Ntp627
Rp628
(dp629
g6
I1
sg7
Nsg77
Nsg78
Nsg79
Nsbsbsg77
g80
(g84
S'\x00\x00\x00\x00\x00\x00\x00\x00'
p630
tp631
Rp632
sg78
g111
sg79
g0
(g1
g2
Ntp633
Rp634
(dp635
g6
I1
sg7
Nsg77
Nsg78
Nsg79
Nsbsbsg77
g80
(g84
S'\x00\x00\x00\x00\x00\x00\x00\x00'
p636
tp637
Rp638
sg78
g125
sg79
g0
(g1
g2
Ntp639
Rp640
(dp641
g6
I1
sg7
Nsg77
Nsg78
Nsg79
Nsbsbsg77
g80
(g131
S'\x00\x00\x00\x00\x00\x00\xf0?'
p642
tp643
Rp644
sg78
g137
sg79
g0
(g1
g2
Ntp645
Rp646
(dp647
g6
I1
sg7
Nsg77
Nsg78
Nsg79
Nsbsbsg77
g80
(g84
S'\x00\x00\x00\x00\x00\x00\x00\x00'
p648
tp649
Rp650
sg78
g144
sg79
g0
(g1
g2
Ntp651
Rp652
(dp653
g6
I1
sg7
Nsg77
Nsg78
Nsg79
Nsbsbsg77
g80
(g131
S'\x00\x00\x00\x00\x00\x00\x00\x00'
p654
tp655
Rp656
sg78
g357
sg79
g0
(g1
g2
Ntp657
Rp658
(dp659
g6
I1
sg7
Nsg77
Nsg78
Nsg79
Nsbsbsg77
g80
(g131
S'\x00\x00\x00\x00\x00\x00\x00\x00'
p660
tp661
Rp662
sg78
g151
sg79
g0
(g1
g2
Ntp663
Rp664
(dp665
g6
I1
sg7
Nsg77
Nsg78
Nsg79
Nsbsbsg77
g80
(g84
S'\x01\x00\x00\x00\x00\x00\x00\x00'
p666
tp667
Rp668
sg78
g118
sg79
g0
(g1
g2
Ntp669
Rp670
(dp671
g6
Nsg7
g0
(g1
g2
Ntp672
Rp673
(dp674
g6
Nsg7
g0
(g1
g2
Ntp675
Rp676
(dp677
g6
Nsg7
g0
(g1
g2
Ntp678
Rp679
(dp680
g6
Nsg7
g0
(g1
g2
Ntp681
Rp682
(dp683
g6
Nsg7
g0
(g1
g2
Ntp684
Rp685
(dp686
g6
Nsg7
g0
(g1
g2
Ntp687
Rp688
(dp689
g6
Nsg7
g0
(g1
g2
Ntp690
Rp691
(dp692
g6
Nsg7
g0
(g1
g2
Ntp693
Rp694
(dp695
g6
Nsg7
g0
(g1
g2
Ntp696
Rp697
(dp698
g6
Nsg7
g0
(g1
g2
Ntp699
Rp700
(dp701
g6
Nsg7
g0
(g1
g2
Ntp702
Rp703
(dp704
g6
I0
sg7
Nsg77
Nsg78
Nsg79
Nsbsg77
g80
(g84
S'\x00\x00\x00\x00\x00\x00\x00\x00'
p705
tp706
Rp707
sg78
g343
sg79
g0
(g1
g2
Ntp708
Rp709
(dp710
g6
I1
sg7
Nsg77
Nsg78
Nsg79
Nsbsbsg77
g80
(g84
S'\x00\x00\x00\x00\x00\x00\x00\x00'
p711
tp712
Rp713
sg78
g350
sg79
g0
(g1
g2
Ntp714
Rp715
(dp716
g6
I1
sg7
Nsg77
Nsg78
Nsg79
Nsbsbsg77
g80
(g84
S'\x00\x00\x00\x00\x00\x00\x00\x00'
p717
tp718
Rp719
sg78
g90
sg79
g0
(g1
g2
Ntp720
Rp721
(dp722
g6
I1
sg7
Nsg77
Nsg78
Nsg79
Nsbsbsg77
g80
(g84
S'\x00\x00\x00\x00\x00\x00\x00\x00'
p723
tp724
Rp725
sg78
g97
sg79
g0
(g1
g2
Ntp726
Rp727
(dp728
g6
I1
sg7
Nsg77
Nsg78
Nsg79
Nsbsbsg77
g80
(g84
S'\x00\x00\x00\x00\x00\x00\x00\x00'
p729
tp730
Rp731
sg78
g104
sg79
g0
(g1
g2
Ntp732
Rp733
(dp734
g6
I1
sg7
Nsg77
Nsg78
Nsg79
Nsbsbsg77
g80
(g84
S'\x00\x00\x00\x00\x00\x00\x00\x00'
p735
tp736
Rp737
sg78
g111
sg79
g0
(g1
g2
Ntp738
Rp739
(dp740
g6
I1
sg7
Nsg77
Nsg78
Nsg79
Nsbsbsg77
g80
(g84
S'\x00\x00\x00\x00\x00\x00\x00\x00'
p741
tp742
Rp743
sg78
g125
sg79
g0
(g1
g2
Ntp744
Rp745
(dp746
g6
I1
sg7
Nsg77
Nsg78
Nsg79
Nsbsbsg77
g80
(g131
S'\x00\x00\x00\x00\x00\x00\xf0?'
p747
tp748
Rp749
sg78
g137
sg79
g0
(g1
g2
Ntp750
Rp751
(dp752
g6
I1
sg7
Nsg77
Nsg78
Nsg79
Nsbsbsg77
g80
(g84
S'\x00\x00\x00\x00\x00\x00\x00\x00'
p753
tp754
Rp755
sg78
g144
sg79
g0
(g1
g2
Ntp756
Rp757
(dp758
g6
I1
sg7
Nsg77
Nsg78
Nsg79
Nsbsbsg77
g80
(g131
S'\x00\x00\x00\x00\x00\x00\x00\x00'
p759
tp760
Rp761
sg78
g151
sg79
g0
(g1
g2
Ntp762
Rp763
(dp764
g6
I1
sg7
Nsg77
Nsg78
Nsg79
Nsbsbsg77
g80
(g131
S'\x00\x00\x00\x00\x00\x00\x00\x00'
p765
tp766
Rp767
sg78
g357
sg79
g0
(g1
g2
Ntp768
Rp769
(dp770
g6
I1
sg7
Nsg77
Nsg78
Nsg79
Nsbsbsbsg77
g80
(g84
S'\x00\x00\x00\x00\x00\x00\x00\x00'
p771
tp772
Rp773
sg78
g544
sg79
g0
(g1
g2
Ntp774
Rp775
(dp776
g6
I1
sg7
Nsg77
Nsg78
Nsg79
Nsbsbsg77
g80
(g84
S'\x00\x00\x00\x00\x00\x00\x00\x00'
p777
tp778
Rp779
sg78
g158
sg79
g0
(g1
g2
Ntp780
Rp781
(dp782
g6
I1
sg7
Nsg77
Nsg78
Nsg79
Nsbsbsg77
g80
(g131
S'\x00\x00\x00\x00\x00\x00T@'
p783
tp784
Rp785
sg78
g165
sg79
g0
(g1
g2
Ntp786
Rp787
(dp788
g6
Nsg7
g0
(g1
g2
Ntp789
Rp790
(dp791
g6
Nsg7
g0
(g1
g2
Ntp792
Rp793
(dp794
g6
Nsg7
g0
(g1
g2
Ntp795
Rp796
(dp797
g6
Nsg7
g0
(g1
g2
Ntp798
Rp799
(dp800
g6
Nsg7
g0
(g1
g2
Ntp801
Rp802
(dp803
g6
Nsg7
g0
(g1
g2
Ntp804
Rp805
(dp806
g6
Nsg7
g0
(g1
g2
Ntp807
Rp808
(dp809
g6
Nsg7
g0
(g1
g2
Ntp810
Rp811
(dp812
g6
Nsg7
g0
(g1
g2
Ntp813
Rp814
(dp815
g6
Nsg7
g0
(g1
g2
Ntp816
Rp817
(dp818
g6
Nsg7
g0
(g1
g2
Ntp819
Rp820
(dp821
g6
Nsg7
g0
(g1
g2
Ntp822
Rp823
(dp824
g6
Nsg7
g0
(g1
g2
Ntp825
Rp826
(dp827
g6
Nsg7
g0
(g1
g2
Ntp828
Rp829
(dp830
g6
I0
sg7
Nsg77
Nsg78
Nsg79
Nsbsg77
g80
(g84
S'\x00\x00\x00\x00\x00\x00\x00\x00'
p831
tp832
Rp833
sg78
g343
sg79
g0
(g1
g2
Ntp834
Rp835
(dp836
g6
I1
sg7
Nsg77
Nsg78
Nsg79
Nsbsbsg77
g80
(g84
S'\x00\x00\x00\x00\x00\x00\x00\x00'
p837
tp838
Rp839
sg78
g350
sg79
g0
(g1
g2
Ntp840
Rp841
(dp842
g6
I1
sg7
Nsg77
Nsg78
Nsg79
Nsbsbsg77
g80
(g84
S'\x00\x00\x00\x00\x00\x00\x00\x00'
p843
tp844
Rp845
sg78
g90
sg79
g0
(g1
g2
Ntp846
Rp847
(dp848
g6
I1
sg7
Nsg77
Nsg78
Nsg79
Nsbsbsg77
g80
(g84
S'\x00\x00\x00\x00\x00\x00\x00\x00'
p849
tp850
Rp851
sg78
g97
sg79
g0
(g1
g2
Ntp852
Rp853
(dp854
g6
I1
sg7
Nsg77
Nsg78
Nsg79
Nsbsbsg77
g80
(g84
S'\x00\x00\x00\x00\x00\x00\x00\x00'
p855
tp856
Rp857
sg78
g104
sg79
g0
(g1
g2
Ntp858
Rp859
(dp860
g6
I1
sg7
Nsg77
Nsg78
Nsg79
Nsbsbsg77
g80
(g84
S'\x00\x00\x00\x00\x00\x00\x00\x00'
p861
tp862
Rp863
sg78
g111
sg79
g0
(g1
g2
Ntp864
Rp865
(dp866
g6
I1
sg7
Nsg77
Nsg78
Nsg79
Nsbsbsg77
g80
(g84
S'\x00\x00\x00\x00\x00\x00\x00\x00'
p867
tp868
Rp869
sg78
g125
sg79
g0
(g1
g2
Ntp870
Rp871
(dp872
g6
I1
sg7
Nsg77
Nsg78
Nsg79
Nsbsbsg77
g80
(g131
S'\x00\x00\x00\x00\x00\x00\xf0?'
p873
tp874
Rp875
sg78
g137
sg79
g0
(g1
g2
Ntp876
Rp877
(dp878
g6
I1
sg7
Nsg77
Nsg78
Nsg79
Nsbsbsg77
g80
(g84
S'\x00\x00\x00\x00\x00\x00\x00\x00'
p879
tp880
Rp881
sg78
g144
sg79
g0
(g1
g2
Ntp882
Rp883
(dp884
g6
I1
sg7
Nsg77
Nsg78
Nsg79
Nsbsbsg77
g80
(g84
S'\x01\x00\x00\x00\x00\x00\x00\x00'
p885
tp886
Rp887
sg78
g118
sg79
g0
(g1
g2
Ntp888
Rp889
(dp890
g6
Nsg7
g0
(g1
g2
Ntp891
Rp892
(dp893
g6
Nsg7
g0
(g1
g2
Ntp894
Rp895
(dp896
g6
Nsg7
g0
(g1
g2
Ntp897
Rp898
(dp899
g6
Nsg7
g0
(g1
g2
Ntp900
Rp901
(dp902
g6
Nsg7
g0
(g1
g2
Ntp903
Rp904
(dp905
g6
Nsg7
g0
(g1
g2
Ntp906
Rp907
(dp908
g6
Nsg7
g0
(g1
g2
Ntp909
Rp910
(dp911
g6
Nsg7
g0
(g1
g2
Ntp912
Rp913
(dp914
g6
Nsg7
g0
(g1
g2
Ntp915
Rp916
(dp917
g6
I0
sg7
Nsg77
Nsg78
Nsg79
Nsbsg77
g80
(g84
S'\x01\x00\x00\x00\x00\x00\x00\x00'
p918
tp919
Rp920
sg78
g343
sg79
g0
(g1
g2
Ntp921
Rp922
(dp923
g6
I1
sg7
Nsg77
Nsg78
Nsg79
Nsbsbsg77
g80
(g84
S'\x00\x00\x00\x00\x00\x00\x00\x00'
p924
tp925
Rp926
sg78
g90
sg79
g0
(g1
g2
Ntp927
Rp928
(dp929
g6
I1
sg7
Nsg77
Nsg78
Nsg79
Nsbsbsg77
g80
(g84
S'\x00\x00\x00\x00\x00\x00\x00\x00'
p930
tp931
Rp932
sg78
g97
sg79
g0
(g1
g2
Ntp933
Rp934
(dp935
g6
I1
sg7
Nsg77
Nsg78
Nsg79
Nsbsbsg77
g80
(g84
S'\x00\x00\x00\x00\x00\x00\x00\x00'
p936
tp937
Rp938
sg78
g104
sg79
g0
(g1
g2
Ntp939
Rp940
(dp941
g6
I1
sg7
Nsg77
Nsg78
Nsg79
Nsbsbsg77
g80
(g84
S'\x00\x00\x00\x00\x00\x00\x00\x00'
p942
tp943
Rp944
sg78
g111
sg79
g0
(g1
g2
Ntp945
Rp946
(dp947
g6
I1
sg7
Nsg77
Nsg78
Nsg79
Nsbsbsg77
g80
(g84
S'\x00\x00\x00\x00\x00\x00\x00\x00'
p948
tp949
Rp950
sg78
g125
sg79
g0
(g1
g2
Ntp951
Rp952
(dp953
g6
I1
sg7
Nsg77
Nsg78
Nsg79
Nsbsbsg77
g80
(g131
S'\x00\x00\x00\x00\x00\x00\xf0?'
p954
tp955
Rp956
sg78
g137
sg79
g0
(g1
g2
Ntp957
Rp958
(dp959
g6
I1
sg7
Nsg77
Nsg78
Nsg79
Nsbsbsg77
g80
(g84
S'\x00\x00\x00\x00\x00\x00\x00\x00'
p960
tp961
Rp962
sg78
g144
sg79
g0
(g1
g2
Ntp963
Rp964
(dp965
g6
I1
sg7
Nsg77
Nsg78
Nsg79
Nsbsbsg77
g80
(g84
S'\x01\x00\x00\x00\x00\x00\x00\x00'
p966
tp967
Rp968
sg78
g350
sg79
g0
(g1
g2
Ntp969
Rp970
(dp971
g6
Nsg7
g0
(g1
g2
Ntp972
Rp973
(dp974
g6
Nsg7
g0
(g1
g2
Ntp975
Rp976
(dp977
g6
Nsg7
g0
(g1
g2
Ntp978
Rp979
(dp980
g6
Nsg7
g0
(g1
g2
Ntp981
Rp982
(dp983
g6
Nsg7
g0
(g1
g2
Ntp984
Rp985
(dp986
g6
Nsg7
g0
(g1
g2
Ntp987
Rp988
(dp989
g6
Nsg7
g0
(g1
g2
Ntp990
Rp991
(dp992
g6
Nsg7
g0
(g1
g2
Ntp993
Rp994
(dp995
g6
I0
sg7
Nsg77
Nsg78
Nsg79
Nsbsg77
g80
(g84
S'\x00\x00\x00\x00\x00\x00\x00\x00'
p996
tp997
Rp998
sg78
g343
sg79
g0
(g1
g2
Ntp999
Rp1000
(dp1001
g6
I1
sg7
Nsg77
Nsg78
Nsg79
Nsbsbsg77
g80
(g84
S'\x00\x00\x00\x00\x00\x00\x00\x00'
p1002
tp1003
Rp1004
sg78
g90
sg79
g0
(g1
g2
Ntp1005
Rp1006
(dp1007
g6
I1
sg7
Nsg77
Nsg78
Nsg79
Nsbsbsg77
g80
(g84
S'\x00\x00\x00\x00\x00\x00\x00\x00'
p1008
tp1009
Rp1010
sg78
g97
sg79
g0
(g1
g2
Ntp1011
Rp1012
(dp1013
g6
I1
sg7
Nsg77
Nsg78
Nsg79
Nsbsbsg77
g80
(g84
S'\x00\x00\x00\x00\x00\x00\x00\x00'
p1014
tp1015
Rp1016
sg78
g104
sg79
g0
(g1
g2
Ntp1017
Rp1018
(dp1019
g6
I1
sg7
Nsg77
Nsg78
Nsg79
Nsbsbsg77
g80
(g84
S'\x00\x00\x00\x00\x00\x00\x00\x00'
p1020
tp1021
Rp1022
sg78
g111
sg79
g0
(g1
g2
Ntp1023
Rp1024
(dp1025
g6
I1
sg7
Nsg77
Nsg78
Nsg79
Nsbsbsg77
g80
(g84
S'\x00\x00\x00\x00\x00\x00\x00\x00'
p1026
tp1027
Rp1028
sg78
g125
sg79
g0
(g1
g2
Ntp1029
Rp1030
(dp1031
g6
I1
sg7
Nsg77
Nsg78
Nsg79
Nsbsbsg77
g80
(g131
S'\x00\x00\x00\x00\x00\x00\xf0?'
p1032
tp1033
Rp1034
sg78
g137
sg79
g0
(g1
g2
Ntp1035
Rp1036
(dp1037
g6
I1
sg7
Nsg77
Nsg78
Nsg79
Nsbsbsg77
g80
(g84
S'\x00\x00\x00\x00\x00\x00\x00\x00'
p1038
tp1039
Rp1040
sg78
g144
sg79
g0
(g1
g2
Ntp1041
Rp1042
(dp1043
g6
I1
sg7
Nsg77
Nsg78
Nsg79
Nsbsbsbsbsg77
g80
(g84
S'\x00\x00\x00\x00\x00\x00\x00\x00'
p1044
tp1045
Rp1046
sg78
g544
sg79
g0
(g1
g2
Ntp1047
Rp1048
(dp1049
g6
I1
sg7
Nsg77
Nsg78
Nsg79
Nsbsbsg77
g80
(g84
S'\x00\x00\x00\x00\x00\x00\x00\x00'
p1050
tp1051
Rp1052
sg78
g158
sg79
g0
(g1
g2
Ntp1053
Rp1054
(dp1055
g6
I1
sg7
Nsg77
Nsg78
Nsg79
Nsbsbsg77
g80
(g131
S'\x00\x00\x00\x00\x00\x00\xf0?'
p1056
tp1057
Rp1058
sg78
g151
sg79
g0
(g1
g2
Ntp1059
Rp1060
(dp1061
g6
Nsg7
g0
(g1
g2
Ntp1062
Rp1063
(dp1064
g6
Nsg7
g0
(g1
g2
Ntp1065
Rp1066
(dp1067
g6
Nsg7
g0
(g1
g2
Ntp1068
Rp1069
(dp1070
g6
Nsg7
g0
(g1
g2
Ntp1071
Rp1072
(dp1073
g6
Nsg7
g0
(g1
g2
Ntp1074
Rp1075
(dp1076
g6
Nsg7
g0
(g1
g2
Ntp1077
Rp1078
(dp1079
g6
Nsg7
g0
(g1
g2
Ntp1080
Rp1081
(dp1082
g6
Nsg7
g0
(g1
g2
Ntp1083
Rp1084
(dp1085
g6
Nsg7
g0
(g1
g2
Ntp1086
Rp1087
(dp1088
g6
Nsg7
g0
(g1
g2
Ntp1089
Rp1090
(dp1091
g6
Nsg7
g0
(g1
g2
Ntp1092
Rp1093
(dp1094
g6
Nsg7
g0
(g1
g2
Ntp1095
Rp1096
(dp1097
g6
I0
sg7
Nsg77
Nsg78
Nsg79
Nsbsg77
g80
(g84
S'\x00\x00\x00\x00\x00\x00\x00\x00'
p1098
tp1099
Rp1100
sg78
g343
sg79
g0
(g1
g2
Ntp1101
Rp1102
(dp1103
g6
I1
sg7
Nsg77
Nsg78
Nsg79
Nsbsbsg77
g80
(g84
S'\x00\x00\x00\x00\x00\x00\x00\x00'
p1104
tp1105
Rp1106
sg78
g350
sg79
g0
(g1
g2
Ntp1107
Rp1108
(dp1109
g6
I1
sg7
Nsg77
Nsg78
Nsg79
Nsbsbsg77
g80
(g84
S'\x00\x00\x00\x00\x00\x00\x00\x00'
p1110
tp1111
Rp1112
sg78
g90
sg79
g0
(g1
g2
Ntp1113
Rp1114
(dp1115
g6
I1
sg7
Nsg77
Nsg78
Nsg79
Nsbsbsg77
g80
(g84
S'\x00\x00\x00\x00\x00\x00\x00\x00'
p1116
tp1117
Rp1118
sg78
g544
sg79
g0
(g1
g2
Ntp1119
Rp1120
(dp1121
g6
I1
sg7
Nsg77
Nsg78
Nsg79
Nsbsbsg77
g80
(g84
S'\x00\x00\x00\x00\x00\x00\x00\x00'
p1122
tp1123
Rp1124
sg78
g97
sg79
g0
(g1
g2
Ntp1125
Rp1126
(dp1127
g6
I1
sg7
Nsg77
Nsg78
Nsg79
Nsbsbsg77
g80
(g84
S'\x00\x00\x00\x00\x00\x00\x00\x00'
p1128
tp1129
Rp1130
sg78
g104
sg79
g0
(g1
g2
Ntp1131
Rp1132
(dp1133
g6
I1
sg7
Nsg77
Nsg78
Nsg79
Nsbsbsg77
g80
(g84
S'\x00\x00\x00\x00\x00\x00\x00\x00'
p1134
tp1135
Rp1136
sg78
g111
sg79
g0
(g1
g2
Ntp1137
Rp1138
(dp1139
g6
I1
sg7
Nsg77
Nsg78
Nsg79
Nsbsbsg77
g80
(g84
S'\x00\x00\x00\x00\x00\x00\x00\x00'
p1140
tp1141
Rp1142
sg78
g118
sg79
g0
(g1
g2
Ntp1143
Rp1144
(dp1145
g6
I1
sg7
Nsg77
Nsg78
Nsg79
Nsbsbsg77
g80
(g84
S'\x00\x00\x00\x00\x00\x00\x00\x00'
p1146
tp1147
Rp1148
sg78
g125
sg79
g0
(g1
g2
Ntp1149
Rp1150
(dp1151
g6
I1
sg7
Nsg77
Nsg78
Nsg79
Nsbsbsg77
g80
(g131
S'\x00\x00\x00\x00\x00\x00\xf0?'
p1152
tp1153
Rp1154
sg78
g137
sg79
g0
(g1
g2
Ntp1155
Rp1156
(dp1157
g6
I1
sg7
Nsg77
Nsg78
Nsg79
Nsbsbsg77
g80
(g84
S'\x00\x00\x00\x00\x00\x00\x00\x00'
p1158
tp1159
Rp1160
sg78
g144
sg79
g0
(g1
g2
Ntp1161
Rp1162
(dp1163
g6
I1
sg7
Nsg77
Nsg78
Nsg79
Nsbsbsg77
g80
(g84
S'\x00\x00\x00\x00\x00\x00\x00\x00'
p1164
tp1165
Rp1166
sg78
g158
sg79
g0
(g1
g2
Ntp1167
Rp1168
(dp1169
g6
I1
sg7
Nsg77
Nsg78
Nsg79
Nsbsbsbsg77
g80
(g131
S'\x00\x00\x00\x00\x00\x00\xe0?'
p1170
tp1171
Rp1172
sg78
g357
sg79
g0
(g1
g2
Ntp1173
Rp1174
(dp1175
g6
Nsg7
g0
(g1
g2
Ntp1176
Rp1177
(dp1178
g6
Nsg7
g0
(g1
g2
Ntp1179
Rp1180
(dp1181
g6
Nsg7
g0
(g1
g2
Ntp1182
Rp1183
(dp1184
g6
Nsg7
g0
(g1
g2
Ntp1185
Rp1186
(dp1187
g6
Nsg7
g0
(g1
g2
Ntp1188
Rp1189
(dp1190
g6
Nsg7
g0
(g1
g2
Ntp1191
Rp1192
(dp1193
g6
Nsg7
g0
(g1
g2
Ntp1194
Rp1195
(dp1196
g6
Nsg7
g0
(g1
g2
Ntp1197
Rp1198
(dp1199
g6
Nsg7
g0
(g1
g2
Ntp1200
Rp1201
(dp1202
g6
Nsg7
g0
(g1
g2
Ntp1203
Rp1204
(dp1205
g6
Nsg7
g0
(g1
g2
Ntp1206
Rp1207
(dp1208
g6
Nsg7
g0
(g1
g2
Ntp1209
Rp1210
(dp1211
g6
Nsg7
g0
(g1
g2
Ntp1212
Rp1213
(dp1214
g6
I0
sg7
Nsg77
Nsg78
Nsg79
Nsbsg77
g80
(g84
S'\x00\x00\x00\x00\x00\x00\x00\x00'
p1215
tp1216
Rp1217
sg78
g343
sg79
g0
(g1
g2
Ntp1218
Rp1219
(dp1220
g6
I1
sg7
Nsg77
Nsg78
Nsg79
Nsbsbsg77
g80
(g84
S'\x00\x00\x00\x00\x00\x00\x00\x00'
p1221
tp1222
Rp1223
sg78
g350
sg79
g0
(g1
g2
Ntp1224
Rp1225
(dp1226
g6
I1
sg7
Nsg77
Nsg78
Nsg79
Nsbsbsg77
g80
(g84
S'\x00\x00\x00\x00\x00\x00\x00\x00'
p1227
tp1228
Rp1229
sg78
g90
sg79
g0
(g1
g2
Ntp1230
Rp1231
(dp1232
g6
I1
sg7
Nsg77
Nsg78
Nsg79
Nsbsbsg77
g80
(g84
S'\x00\x00\x00\x00\x00\x00\x00\x00'
p1233
tp1234
Rp1235
sg78
g544
sg79
g0
(g1
g2
Ntp1236
Rp1237
(dp1238
g6
I1
sg7
Nsg77
Nsg78
Nsg79
Nsbsbsg77
g80
(g84
S'\x00\x00\x00\x00\x00\x00\x00\x00'
p1239
tp1240
Rp1241
sg78
g97
sg79
g0
(g1
g2
Ntp1242
Rp1243
(dp1244
g6
I1
sg7
Nsg77
Nsg78
Nsg79
Nsbsbsg77
g80
(g84
S'\x00\x00\x00\x00\x00\x00\x00\x00'
p1245
tp1246
Rp1247
sg78
g104
sg79
g0
(g1
g2
Ntp1248
Rp1249
(dp1250
g6
I1
sg7
Nsg77
Nsg78
Nsg79
Nsbsbsg77
g80
(g84
S'\x00\x00\x00\x00\x00\x00\x00\x00'
p1251
tp1252
Rp1253
sg78
g111
sg79
g0
(g1
g2
Ntp1254
Rp1255
(dp1256
g6
I1
sg7
Nsg77
Nsg78
Nsg79
Nsbsbsg77
g80
(g84
S'\x00\x00\x00\x00\x00\x00\x00\x00'
p1257
tp1258
Rp1259
sg78
g158
sg79
g0
(g1
g2
Ntp1260
Rp1261
(dp1262
g6
I1
sg7
Nsg77
Nsg78
Nsg79
Nsbsbsg77
g80
(g84
S'\x00\x00\x00\x00\x00\x00\x00\x00'
p1263
tp1264
Rp1265
sg78
g125
sg79
g0
(g1
g2
Ntp1266
Rp1267
(dp1268
g6
I1
sg7
Nsg77
Nsg78
Nsg79
Nsbsbsg77
g80
(g131
S'\x00\x00\x00\x00\x00\x00\xf0?'
p1269
tp1270
Rp1271
sg78
g137
sg79
g0
(g1
g2
Ntp1272
Rp1273
(dp1274
g6
I1
sg7
Nsg77
Nsg78
Nsg79
Nsbsbsg77
g80
(g84
S'\x00\x00\x00\x00\x00\x00\x00\x00'
p1275
tp1276
Rp1277
sg78
g144
sg79
g0
(g1
g2
Ntp1278
Rp1279
(dp1280
g6
I1
sg7
Nsg77
Nsg78
Nsg79
Nsbsbsg77
g80
(g84
S'\x01\x00\x00\x00\x00\x00\x00\x00'
p1281
tp1282
Rp1283
sg78
g118
sg79
g0
(g1
g2
Ntp1284
Rp1285
(dp1286
g6
Nsg7
g0
(g1
g2
Ntp1287
Rp1288
(dp1289
g6
Nsg7
g0
(g1
g2
Ntp1290
Rp1291
(dp1292
g6
Nsg7
g0
(g1
g2
Ntp1293
Rp1294
(dp1295
g6
Nsg7
g0
(g1
g2
Ntp1296
Rp1297
(dp1298
g6
Nsg7
g0
(g1
g2
Ntp1299
Rp1300
(dp1301
g6
Nsg7
g0
(g1
g2
Ntp1302
Rp1303
(dp1304
g6
Nsg7
g0
(g1
g2
Ntp1305
Rp1306
(dp1307
g6
Nsg7
g0
(g1
g2
Ntp1308
Rp1309
(dp1310
g6
Nsg7
g0
(g1
g2
Ntp1311
Rp1312
(dp1313
g6
Nsg7
g0
(g1
g2
Ntp1314
Rp1315
(dp1316
g6
Nsg7
g0
(g1
g2
Ntp1317
Rp1318
(dp1319
g6
I0
sg7
Nsg77
Nsg78
Nsg79
Nsbsg77
g80
(g84
S'\x00\x00\x00\x00\x00\x00\x00\x00'
p1320
tp1321
Rp1322
sg78
g90
sg79
g0
(g1
g2
Ntp1323
Rp1324
(dp1325
g6
I1
sg7
Nsg77
Nsg78
Nsg79
Nsbsbsg77
g80
(g84
S'\x00\x00\x00\x00\x00\x00\x00\x00'
p1326
tp1327
Rp1328
sg78
g544
sg79
g0
(g1
g2
Ntp1329
Rp1330
(dp1331
g6
I1
sg7
Nsg77
Nsg78
Nsg79
Nsbsbsg77
g80
(g84
S'\x00\x00\x00\x00\x00\x00\x00\x00'
p1332
tp1333
Rp1334
sg78
g97
sg79
g0
(g1
g2
Ntp1335
Rp1336
(dp1337
g6
I1
sg7
Nsg77
Nsg78
Nsg79
Nsbsbsg77
g80
(g84
S'\x00\x00\x00\x00\x00\x00\x00\x00'
p1338
tp1339
Rp1340
sg78
g104
sg79
g0
(g1
g2
Ntp1341
Rp1342
(dp1343
g6
I1
sg7
Nsg77
Nsg78
Nsg79
Nsbsbsg77
g80
(g84
S'\x00\x00\x00\x00\x00\x00\x00\x00'
p1344
tp1345
Rp1346
sg78
g111
sg79
g0
(g1
g2
Ntp1347
Rp1348
(dp1349
g6
I1
sg7
Nsg77
Nsg78
Nsg79
Nsbsbsg77
g80
(g84
S'\x00\x00\x00\x00\x00\x00\x00\x00'
p1350
tp1351
Rp1352
sg78
g158
sg79
g0
(g1
g2
Ntp1353
Rp1354
(dp1355
g6
I1
sg7
Nsg77
Nsg78
Nsg79
Nsbsbsg77
g80
(g84
S'\x00\x00\x00\x00\x00\x00\x00\x00'
p1356
tp1357
Rp1358
sg78
g125
sg79
g0
(g1
g2
Ntp1359
Rp1360
(dp1361
g6
I1
sg7
Nsg77
Nsg78
Nsg79
Nsbsbsg77
g80
(g131
S'\x00\x00\x00\x00\x00\x00\xf0?'
p1362
tp1363
Rp1364
sg78
g137
sg79
g0
(g1
g2
Ntp1365
Rp1366
(dp1367
g6
I1
sg7
Nsg77
Nsg78
Nsg79
Nsbsbsg77
g80
(g84
S'\x00\x00\x00\x00\x00\x00\x00\x00'
p1368
tp1369
Rp1370
sg78
g144
sg79
g0
(g1
g2
Ntp1371
Rp1372
(dp1373
g6
I1
sg7
Nsg77
Nsg78
Nsg79
Nsbsbsg77
g80
(g84
S'\x00\x00\x00\x00\x00\x00\x00\x00'
p1374
tp1375
Rp1376
sg78
g343
sg79
g0
(g1
g2
Ntp1377
Rp1378
(dp1379
g6
I1
sg7
Nsg77
Nsg78
Nsg79
Nsbsbsg77
g80
(g84
S'\x00\x00\x00\x00\x00\x00\x00\x00'
p1380
tp1381
Rp1382
sg78
g350
sg79
g0
(g1
g2
Ntp1383
Rp1384
(dp1385
g6
I1
sg7
Nsg77
Nsg78
Nsg79
Nsbsbsbsg77
g80
(g131
S'\x00\x00\x00\x00\x00\x00\x00\x00'
p1386
tp1387
Rp1388
sg78
g151
sg79
g0
(g1
g2
Ntp1389
Rp1390
(dp1391
g6
I1
sg7
Nsg77
Nsg78
Nsg79
Nsbsbsbsbsbsg77
g80
(g84
S'\x00\x00\x00\x00\x00\x00\x00\x00'
p1392
tp1393
Rp1394
sg78
S'stage_one'
p1395
sg79
g0
(g1
g2
Ntp1396
Rp1397
(dp1398
g6
I1
sg7
Nsg77
Nsg78
Nsg79
Nsbsbsg77
g80
(g131
S'\x00\x00\x00\x00\x00\x00\x00\x00'
p1399
tp1400
Rp1401
sg78
S'avg_percent_normal_cells'
p1402
sg79
g0
(g1
g2
Ntp1403
Rp1404
(dp1405
g6
I1
sg7
Nsg77
Nsg78
Nsg79
Nsbsbsg77
g80
(g84
S'\x00\x00\x00\x00\x00\x00\x00\x00'
p1406
tp1407
Rp1408
sg78
S'number_of_lymphnodes_examined'
p1409
sg79
g0
(g1
g2
Ntp1410
Rp1411
(dp1412
g6
I1
sg7
Nsg77
Nsg78
Nsg79
Nsbsbsg77
g80
(g84
S'\x00\x00\x00\x00\x00\x00\x00\x00'
p1413
tp1414
Rp1415
sg78
S'stage_three'
p1416
sg79
g0
(g1
g2
Ntp1417
Rp1418
(dp1419
g6
I1
sg7
Nsg77
Nsg78
Nsg79
Nsbsbsg77
g80
(g131
S'\x00\x00\x00\x00\x00\x00\x08@'
p1420
tp1421
Rp1422
sg78
S'avg_percent_lymphocyte_infiltration'
p1423
sg79
g0
(g1
g2
Ntp1424
Rp1425
(dp1426
g6
Nsg7
g0
(g1
g2
Ntp1427
Rp1428
(dp1429
g6
Nsg7
g0
(g1
g2
Ntp1430
Rp1431
(dp1432
g6
Nsg7
g0
(g1
g2
Ntp1433
Rp1434
(dp1435
g6
Nsg7
g0
(g1
g2
Ntp1436
Rp1437
(dp1438
g6
Nsg7
g0
(g1
g2
Ntp1439
Rp1440
(dp1441
g6
Nsg7
g0
(g1
g2
Ntp1442
Rp1443
(dp1444
g6
Nsg7
g0
(g1
g2
Ntp1445
Rp1446
(dp1447
g6
Nsg7
g0
(g1
g2
Ntp1448
Rp1449
(dp1450
g6
Nsg7
g0
(g1
g2
Ntp1451
Rp1452
(dp1453
g6
Nsg7
g0
(g1
g2
Ntp1454
Rp1455
(dp1456
g6
Nsg7
g0
(g1
g2
Ntp1457
Rp1458
(dp1459
g6
Nsg7
g0
(g1
g2
Ntp1460
Rp1461
(dp1462
g6
Nsg7
g0
(g1
g2
Ntp1463
Rp1464
(dp1465
g6
Nsg7
g0
(g1
g2
Ntp1466
Rp1467
(dp1468
g6
Nsg7
g0
(g1
g2
Ntp1469
Rp1470
(dp1471
g6
Nsg7
g0
(g1
g2
Ntp1472
Rp1473
(dp1474
g6
Nsg7
g0
(g1
g2
Ntp1475
Rp1476
(dp1477
g6
Nsg7
g0
(g1
g2
Ntp1478
Rp1479
(dp1480
g6
Nsg7
g0
(g1
g2
Ntp1481
Rp1482
(dp1483
g6
Nsg7
g0
(g1
g2
Ntp1484
Rp1485
(dp1486
g6
I0
sg7
Nsg77
Nsg78
Nsg79
Nsbsg77
g80
(g84
S'\x00\x00\x00\x00\x00\x00\x00\x00'
p1487
tp1488
Rp1489
sg78
g343
sg79
g0
(g1
g2
Ntp1490
Rp1491
(dp1492
g6
I1
sg7
Nsg77
Nsg78
Nsg79
Nsbsbsg77
g80
(g84
S'\x00\x00\x00\x00\x00\x00\x00\x00'
p1493
tp1494
Rp1495
sg78
g350
sg79
g0
(g1
g2
Ntp1496
Rp1497
(dp1498
g6
I1
sg7
Nsg77
Nsg78
Nsg79
Nsbsbsg77
g80
(g84
S'\x00\x00\x00\x00\x00\x00\x00\x00'
p1499
tp1500
Rp1501
sg78
g90
sg79
g0
(g1
g2
Ntp1502
Rp1503
(dp1504
g6
I1
sg7
Nsg77
Nsg78
Nsg79
Nsbsbsg77
g80
(g84
S'\x00\x00\x00\x00\x00\x00\x00\x00'
p1505
tp1506
Rp1507
sg78
g544
sg79
g0
(g1
g2
Ntp1508
Rp1509
(dp1510
g6
I1
sg7
Nsg77
Nsg78
Nsg79
Nsbsbsg77
g80
(g84
S'\x00\x00\x00\x00\x00\x00\x00\x00'
p1511
tp1512
Rp1513
sg78
g97
sg79
g0
(g1
g2
Ntp1514
Rp1515
(dp1516
g6
I1
sg7
Nsg77
Nsg78
Nsg79
Nsbsbsg77
g80
(g84
S'\x00\x00\x00\x00\x00\x00\x00\x00'
p1517
tp1518
Rp1519
sg78
g1416
sg79
g0
(g1
g2
Ntp1520
Rp1521
(dp1522
g6
I1
sg7
Nsg77
Nsg78
Nsg79
Nsbsbsg77
g80
(g84
S'\x00\x00\x00\x00\x00\x00\x00\x00'
p1523
tp1524
Rp1525
sg78
g104
sg79
g0
(g1
g2
Ntp1526
Rp1527
(dp1528
g6
I1
sg7
Nsg77
Nsg78
Nsg79
Nsbsbsg77
g80
(g84
S'\x00\x00\x00\x00\x00\x00\x00\x00'
p1529
tp1530
Rp1531
sg78
g111
sg79
g0
(g1
g2
Ntp1532
Rp1533
(dp1534
g6
I1
sg7
Nsg77
Nsg78
Nsg79
Nsbsbsg77
g80
(g84
S'\x00\x00\x00\x00\x00\x00\x00\x00'
p1535
tp1536
Rp1537
sg78
g118
sg79
g0
(g1
g2
Ntp1538
Rp1539
(dp1540
g6
I1
sg7
Nsg77
Nsg78
Nsg79
Nsbsbsg77
g80
(g84
S'\x00\x00\x00\x00\x00\x00\x00\x00'
p1541
tp1542
Rp1543
sg78
g125
sg79
g0
(g1
g2
Ntp1544
Rp1545
(dp1546
g6
I1
sg7
Nsg77
Nsg78
Nsg79
Nsbsbsg77
g80
(g131
S'\x00\x00\x00\x00\x00\x00\xf0?'
p1547
tp1548
Rp1549
sg78
g137
sg79
g0
(g1
g2
Ntp1550
Rp1551
(dp1552
g6
I1
sg7
Nsg77
Nsg78
Nsg79
Nsbsbsg77
g80
(g84
S'\x00\x00\x00\x00\x00\x00\x00\x00'
p1553
tp1554
Rp1555
sg78
g144
sg79
g0
(g1
g2
Ntp1556
Rp1557
(dp1558
g6
I1
sg7
Nsg77
Nsg78
Nsg79
Nsbsbsg77
g80
(g131
S'\x00\x00\x00\x00\x00\x00\x00\x00'
p1559
tp1560
Rp1561
sg78
g1402
sg79
g0
(g1
g2
Ntp1562
Rp1563
(dp1564
g6
I1
sg7
Nsg77
Nsg78
Nsg79
Nsbsbsg77
g80
(g131
S'\x00\x00\x00\x00\x00\xc0X@'
p1565
tp1566
Rp1567
sg78
g165
sg79
g0
(g1
g2
Ntp1568
Rp1569
(dp1570
g6
Nsg7
g0
(g1
g2
Ntp1571
Rp1572
(dp1573
g6
Nsg7
g0
(g1
g2
Ntp1574
Rp1575
(dp1576
g6
Nsg7
g0
(g1
g2
Ntp1577
Rp1578
(dp1579
g6
Nsg7
g0
(g1
g2
Ntp1580
Rp1581
(dp1582
g6
Nsg7
g0
(g1
g2
Ntp1583
Rp1584
(dp1585
g6
Nsg7
g0
(g1
g2
Ntp1586
Rp1587
(dp1588
g6
Nsg7
g0
(g1
g2
Ntp1589
Rp1590
(dp1591
g6
Nsg7
g0
(g1
g2
Ntp1592
Rp1593
(dp1594
g6
Nsg7
g0
(g1
g2
Ntp1595
Rp1596
(dp1597
g6
Nsg7
g0
(g1
g2
Ntp1598
Rp1599
(dp1600
g6
Nsg7
g0
(g1
g2
Ntp1601
Rp1602
(dp1603
g6
Nsg7
g0
(g1
g2
Ntp1604
Rp1605
(dp1606
g6
Nsg7
g0
(g1
g2
Ntp1607
Rp1608
(dp1609
g6
I0
sg7
Nsg77
Nsg78
Nsg79
Nsbsg77
g80
(g84
S'\x00\x00\x00\x00\x00\x00\x00\x00'
p1610
tp1611
Rp1612
sg78
g90
sg79
g0
(g1
g2
Ntp1613
Rp1614
(dp1615
g6
I1
sg7
Nsg77
Nsg78
Nsg79
Nsbsbsg77
g80
(g84
S'\x00\x00\x00\x00\x00\x00\x00\x00'
p1616
tp1617
Rp1618
sg78
g97
sg79
g0
(g1
g2
Ntp1619
Rp1620
(dp1621
g6
I1
sg7
Nsg77
Nsg78
Nsg79
Nsbsbsg77
g80
(g84
S'\x00\x00\x00\x00\x00\x00\x00\x00'
p1622
tp1623
Rp1624
sg78
g104
sg79
g0
(g1
g2
Ntp1625
Rp1626
(dp1627
g6
I1
sg7
Nsg77
Nsg78
Nsg79
Nsbsbsg77
g80
(g84
S'\x00\x00\x00\x00\x00\x00\x00\x00'
p1628
tp1629
Rp1630
sg78
g111
sg79
g0
(g1
g2
Ntp1631
Rp1632
(dp1633
g6
I1
sg7
Nsg77
Nsg78
Nsg79
Nsbsbsg77
g80
(g84
S'\x00\x00\x00\x00\x00\x00\x00\x00'
p1634
tp1635
Rp1636
sg78
g118
sg79
g0
(g1
g2
Ntp1637
Rp1638
(dp1639
g6
I1
sg7
Nsg77
Nsg78
Nsg79
Nsbsbsg77
g80
(g84
S'\x00\x00\x00\x00\x00\x00\x00\x00'
p1640
tp1641
Rp1642
sg78
g125
sg79
g0
(g1
g2
Ntp1643
Rp1644
(dp1645
g6
I1
sg7
Nsg77
Nsg78
Nsg79
Nsbsbsg77
g80
(g131
S'\x00\x00\x00\x00\x00\x00\xf0?'
p1646
tp1647
Rp1648
sg78
g137
sg79
g0
(g1
g2
Ntp1649
Rp1650
(dp1651
g6
I1
sg7
Nsg77
Nsg78
Nsg79
Nsbsbsg77
g80
(g84
S'\x00\x00\x00\x00\x00\x00\x00\x00'
p1652
tp1653
Rp1654
sg78
g144
sg79
g0
(g1
g2
Ntp1655
Rp1656
(dp1657
g6
I1
sg7
Nsg77
Nsg78
Nsg79
Nsbsbsg77
g80
(g131
S'\x00\x00\x00\x00\x00\x00$@'
p1658
tp1659
Rp1660
sg78
g1402
sg79
g0
(g1
g2
Ntp1661
Rp1662
(dp1663
g6
Nsg7
g0
(g1
g2
Ntp1664
Rp1665
(dp1666
g6
Nsg7
g0
(g1
g2
Ntp1667
Rp1668
(dp1669
g6
Nsg7
g0
(g1
g2
Ntp1670
Rp1671
(dp1672
g6
Nsg7
g0
(g1
g2
Ntp1673
Rp1674
(dp1675
g6
Nsg7
g0
(g1
g2
Ntp1676
Rp1677
(dp1678
g6
Nsg7
g0
(g1
g2
Ntp1679
Rp1680
(dp1681
g6
Nsg7
g0
(g1
g2
Ntp1682
Rp1683
(dp1684
g6
Nsg7
g0
(g1
g2
Ntp1685
Rp1686
(dp1687
g6
I0
sg7
Nsg77
Nsg78
Nsg79
Nsbsg77
g80
(g84
S'\x00\x00\x00\x00\x00\x00\x00\x00'
p1688
tp1689
Rp1690
sg78
g90
sg79
g0
(g1
g2
Ntp1691
Rp1692
(dp1693
g6
I1
sg7
Nsg77
Nsg78
Nsg79
Nsbsbsg77
g80
(g84
S'\x00\x00\x00\x00\x00\x00\x00\x00'
p1694
tp1695
Rp1696
sg78
g97
sg79
g0
(g1
g2
Ntp1697
Rp1698
(dp1699
g6
I1
sg7
Nsg77
Nsg78
Nsg79
Nsbsbsg77
g80
(g84
S'\x00\x00\x00\x00\x00\x00\x00\x00'
p1700
tp1701
Rp1702
sg78
g104
sg79
g0
(g1
g2
Ntp1703
Rp1704
(dp1705
g6
I1
sg7
Nsg77
Nsg78
Nsg79
Nsbsbsg77
g80
(g84
S'\x00\x00\x00\x00\x00\x00\x00\x00'
p1706
tp1707
Rp1708
sg78
g111
sg79
g0
(g1
g2
Ntp1709
Rp1710
(dp1711
g6
I1
sg7
Nsg77
Nsg78
Nsg79
Nsbsbsg77
g80
(g84
S'\x00\x00\x00\x00\x00\x00\x00\x00'
p1712
tp1713
Rp1714
sg78
g118
sg79
g0
(g1
g2
Ntp1715
Rp1716
(dp1717
g6
I1
sg7
Nsg77
Nsg78
Nsg79
Nsbsbsg77
g80
(g84
S'\x00\x00\x00\x00\x00\x00\x00\x00'
p1718
tp1719
Rp1720
sg78
g125
sg79
g0
(g1
g2
Ntp1721
Rp1722
(dp1723
g6
I1
sg7
Nsg77
Nsg78
Nsg79
Nsbsbsg77
g80
(g131
S'\x00\x00\x00\x00\x00\x00\xf0?'
p1724
tp1725
Rp1726
sg78
g137
sg79
g0
(g1
g2
Ntp1727
Rp1728
(dp1729
g6
I1
sg7
Nsg77
Nsg78
Nsg79
Nsbsbsg77
g80
(g84
S'\x00\x00\x00\x00\x00\x00\x00\x00'
p1730
tp1731
Rp1732
sg78
g144
sg79
g0
(g1
g2
Ntp1733
Rp1734
(dp1735
g6
I1
sg7
Nsg77
Nsg78
Nsg79
Nsbsbsbsg77
g80
(g84
S'\x01\x00\x00\x00\x00\x00\x00\x00'
p1736
tp1737
Rp1738
sg78
g544
sg79
g0
(g1
g2
Ntp1739
Rp1740
(dp1741
g6
Nsg7
g0
(g1
g2
Ntp1742
Rp1743
(dp1744
g6
Nsg7
g0
(g1
g2
Ntp1745
Rp1746
(dp1747
g6
Nsg7
g0
(g1
g2
Ntp1748
Rp1749
(dp1750
g6
Nsg7
g0
(g1
g2
Ntp1751
Rp1752
(dp1753
g6
Nsg7
g0
(g1
g2
Ntp1754
Rp1755
(dp1756
g6
Nsg7
g0
(g1
g2
Ntp1757
Rp1758
(dp1759
g6
Nsg7
g0
(g1
g2
Ntp1760
Rp1761
(dp1762
g6
Nsg7
g0
(g1
g2
Ntp1763
Rp1764
(dp1765
g6
Nsg7
g0
(g1
g2
Ntp1766
Rp1767
(dp1768
g6
I0
sg7
Nsg77
Nsg78
Nsg79
Nsbsg77
g80
(g84
S'\x00\x00\x00\x00\x00\x00\x00\x00'
p1769
tp1770
Rp1771
sg78
g90
sg79
g0
(g1
g2
Ntp1772
Rp1773
(dp1774
g6
I1
sg7
Nsg77
Nsg78
Nsg79
Nsbsbsg77
g80
(g84
S'\x00\x00\x00\x00\x00\x00\x00\x00'
p1775
tp1776
Rp1777
sg78
g97
sg79
g0
(g1
g2
Ntp1778
Rp1779
(dp1780
g6
I1
sg7
Nsg77
Nsg78
Nsg79
Nsbsbsg77
g80
(g84
S'\x00\x00\x00\x00\x00\x00\x00\x00'
p1781
tp1782
Rp1783
sg78
g104
sg79
g0
(g1
g2
Ntp1784
Rp1785
(dp1786
g6
I1
sg7
Nsg77
Nsg78
Nsg79
Nsbsbsg77
g80
(g84
S'\x00\x00\x00\x00\x00\x00\x00\x00'
p1787
tp1788
Rp1789
sg78
g111
sg79
g0
(g1
g2
Ntp1790
Rp1791
(dp1792
g6
I1
sg7
Nsg77
Nsg78
Nsg79
Nsbsbsg77
g80
(g84
S'\x00\x00\x00\x00\x00\x00\x00\x00'
p1793
tp1794
Rp1795
sg78
g118
sg79
g0
(g1
g2
Ntp1796
Rp1797
(dp1798
g6
I1
sg7
Nsg77
Nsg78
Nsg79
Nsbsbsg77
g80
(g84
S'\x00\x00\x00\x00\x00\x00\x00\x00'
p1799
tp1800
Rp1801
sg78
g125
sg79
g0
(g1
g2
Ntp1802
Rp1803
(dp1804
g6
I1
sg7
Nsg77
Nsg78
Nsg79
Nsbsbsg77
g80
(g131
S'\x00\x00\x00\x00\x00\x00\xf0?'
p1805
tp1806
Rp1807
sg78
g137
sg79
g0
(g1
g2
Ntp1808
Rp1809
(dp1810
g6
I1
sg7
Nsg77
Nsg78
Nsg79
Nsbsbsg77
g80
(g84
S'\x00\x00\x00\x00\x00\x00\x00\x00'
p1811
tp1812
Rp1813
sg78
g144
sg79
g0
(g1
g2
Ntp1814
Rp1815
(dp1816
g6
I1
sg7
Nsg77
Nsg78
Nsg79
Nsbsbsg77
g80
(g131
S'\x00\x00\x00\x00\x00\x004@'
p1817
tp1818
Rp1819
sg78
g1402
sg79
g0
(g1
g2
Ntp1820
Rp1821
(dp1822
g6
Nsg7
g0
(g1
g2
Ntp1823
Rp1824
(dp1825
g6
Nsg7
g0
(g1
g2
Ntp1826
Rp1827
(dp1828
g6
Nsg7
g0
(g1
g2
Ntp1829
Rp1830
(dp1831
g6
Nsg7
g0
(g1
g2
Ntp1832
Rp1833
(dp1834
g6
Nsg7
g0
(g1
g2
Ntp1835
Rp1836
(dp1837
g6
Nsg7
g0
(g1
g2
Ntp1838
Rp1839
(dp1840
g6
Nsg7
g0
(g1
g2
Ntp1841
Rp1842
(dp1843
g6
Nsg7
g0
(g1
g2
Ntp1844
Rp1845
(dp1846
g6
I0
sg7
Nsg77
Nsg78
Nsg79
Nsbsg77
g80
(g84
S'\x00\x00\x00\x00\x00\x00\x00\x00'
p1847
tp1848
Rp1849
sg78
g90
sg79
g0
(g1
g2
Ntp1850
Rp1851
(dp1852
g6
I1
sg7
Nsg77
Nsg78
Nsg79
Nsbsbsg77
g80
(g84
S'\x00\x00\x00\x00\x00\x00\x00\x00'
p1853
tp1854
Rp1855
sg78
g97
sg79
g0
(g1
g2
Ntp1856
Rp1857
(dp1858
g6
I1
sg7
Nsg77
Nsg78
Nsg79
Nsbsbsg77
g80
(g84
S'\x00\x00\x00\x00\x00\x00\x00\x00'
p1859
tp1860
Rp1861
sg78
g104
sg79
g0
(g1
g2
Ntp1862
Rp1863
(dp1864
g6
I1
sg7
Nsg77
Nsg78
Nsg79
Nsbsbsg77
g80
(g84
S'\x00\x00\x00\x00\x00\x00\x00\x00'
p1865
tp1866
Rp1867
sg78
g111
sg79
g0
(g1
g2
Ntp1868
Rp1869
(dp1870
g6
I1
sg7
Nsg77
Nsg78
Nsg79
Nsbsbsg77
g80
(g84
S'\x00\x00\x00\x00\x00\x00\x00\x00'
p1871
tp1872
Rp1873
sg78
g118
sg79
g0
(g1
g2
Ntp1874
Rp1875
(dp1876
g6
I1
sg7
Nsg77
Nsg78
Nsg79
Nsbsbsg77
g80
(g84
S'\x00\x00\x00\x00\x00\x00\x00\x00'
p1877
tp1878
Rp1879
sg78
g125
sg79
g0
(g1
g2
Ntp1880
Rp1881
(dp1882
g6
I1
sg7
Nsg77
Nsg78
Nsg79
Nsbsbsg77
g80
(g131
S'\x00\x00\x00\x00\x00\x00\xf0?'
p1883
tp1884
Rp1885
sg78
g137
sg79
g0
(g1
g2
Ntp1886
Rp1887
(dp1888
g6
I1
sg7
Nsg77
Nsg78
Nsg79
Nsbsbsg77
g80
(g84
S'\x00\x00\x00\x00\x00\x00\x00\x00'
p1889
tp1890
Rp1891
sg78
g144
sg79
g0
(g1
g2
Ntp1892
Rp1893
(dp1894
g6
I1
sg7
Nsg77
Nsg78
Nsg79
Nsbsbsbsbsg77
g80
(g84
S'\x00\x00\x00\x00\x00\x00\x00\x00'
p1895
tp1896
Rp1897
sg78
g1416
sg79
g0
(g1
g2
Ntp1898
Rp1899
(dp1900
g6
I1
sg7
Nsg77
Nsg78
Nsg79
Nsbsbsg77
g80
(g84
S'\x00\x00\x00\x00\x00\x00\x00\x00'
p1901
tp1902
Rp1903
sg78
g343
sg79
g0
(g1
g2
Ntp1904
Rp1905
(dp1906
g6
I1
sg7
Nsg77
Nsg78
Nsg79
Nsbsbsg77
g80
(g84
S'\x00\x00\x00\x00\x00\x00\x00\x00'
p1907
tp1908
Rp1909
sg78
g350
sg79
g0
(g1
g2
Ntp1910
Rp1911
(dp1912
g6
I1
sg7
Nsg77
Nsg78
Nsg79
Nsbsbsbsg77
g80
(g84
S'\x1d\x00\x00\x00\x00\x00\x00\x00'
p1913
tp1914
Rp1915
sg78
g1409
sg79
g0
(g1
g2
Ntp1916
Rp1917
(dp1918
g6
Nsg7
g0
(g1
g2
Ntp1919
Rp1920
(dp1921
g6
Nsg7
g0
(g1
g2
Ntp1922
Rp1923
(dp1924
g6
Nsg7
g0
(g1
g2
Ntp1925
Rp1926
(dp1927
g6
Nsg7
g0
(g1
g2
Ntp1928
Rp1929
(dp1930
g6
Nsg7
g0
(g1
g2
Ntp1931
Rp1932
(dp1933
g6
Nsg7
g0
(g1
g2
Ntp1934
Rp1935
(dp1936
g6
Nsg7
g0
(g1
g2
Ntp1937
Rp1938
(dp1939
g6
Nsg7
g0
(g1
g2
Ntp1940
Rp1941
(dp1942
g6
Nsg7
g0
(g1
g2
Ntp1943
Rp1944
(dp1945
g6
Nsg7
g0
(g1
g2
Ntp1946
Rp1947
(dp1948
g6
Nsg7
g0
(g1
g2
Ntp1949
Rp1950
(dp1951
g6
Nsg7
g0
(g1
g2
Ntp1952
Rp1953
(dp1954
g6
Nsg7
g0
(g1
g2
Ntp1955
Rp1956
(dp1957
g6
Nsg7
g0
(g1
g2
Ntp1958
Rp1959
(dp1960
g6
I0
sg7
Nsg77
Nsg78
Nsg79
Nsbsg77
g80
(g84
S'\x00\x00\x00\x00\x00\x00\x00\x00'
p1961
tp1962
Rp1963
sg78
g343
sg79
g0
(g1
g2
Ntp1964
Rp1965
(dp1966
g6
I1
sg7
Nsg77
Nsg78
Nsg79
Nsbsbsg77
g80
(g84
S'\x00\x00\x00\x00\x00\x00\x00\x00'
p1967
tp1968
Rp1969
sg78
g350
sg79
g0
(g1
g2
Ntp1970
Rp1971
(dp1972
g6
I1
sg7
Nsg77
Nsg78
Nsg79
Nsbsbsg77
g80
(g84
S'\x00\x00\x00\x00\x00\x00\x00\x00'
p1973
tp1974
Rp1975
sg78
g90
sg79
g0
(g1
g2
Ntp1976
Rp1977
(dp1978
g6
I1
sg7
Nsg77
Nsg78
Nsg79
Nsbsbsg77
g80
(g84
S'\x00\x00\x00\x00\x00\x00\x00\x00'
p1979
tp1980
Rp1981
sg78
g97
sg79
g0
(g1
g2
Ntp1982
Rp1983
(dp1984
g6
I1
sg7
Nsg77
Nsg78
Nsg79
Nsbsbsg77
g80
(g84
S'\x00\x00\x00\x00\x00\x00\x00\x00'
p1985
tp1986
Rp1987
sg78
g104
sg79
g0
(g1
g2
Ntp1988
Rp1989
(dp1990
g6
I1
sg7
Nsg77
Nsg78
Nsg79
Nsbsbsg77
g80
(g84
S'\x00\x00\x00\x00\x00\x00\x00\x00'
p1991
tp1992
Rp1993
sg78
g111
sg79
g0
(g1
g2
Ntp1994
Rp1995
(dp1996
g6
I1
sg7
Nsg77
Nsg78
Nsg79
Nsbsbsg77
g80
(g84
S'\x00\x00\x00\x00\x00\x00\x00\x00'
p1997
tp1998
Rp1999
sg78
g125
sg79
g0
(g1
g2
Ntp2000
Rp2001
(dp2002
g6
I1
sg7
Nsg77
Nsg78
Nsg79
Nsbsbsg77
g80
(g131
S'\x00\x00\x00\x00\x00\x00\xf0?'
p2003
tp2004
Rp2005
sg78
g137
sg79
g0
(g1
g2
Ntp2006
Rp2007
(dp2008
g6
I1
sg7
Nsg77
Nsg78
Nsg79
Nsbsbsg77
g80
(g84
S'\x00\x00\x00\x00\x00\x00\x00\x00'
p2009
tp2010
Rp2011
sg78
g144
sg79
g0
(g1
g2
Ntp2012
Rp2013
(dp2014
g6
I1
sg7
Nsg77
Nsg78
Nsg79
Nsbsbsg77
g80
(g84
S'\x00\x00\x00\x00\x00\x00\x00\x00'
p2015
tp2016
Rp2017
sg78
g118
sg79
g0
(g1
g2
Ntp2018
Rp2019
(dp2020
g6
I1
sg7
Nsg77
Nsg78
Nsg79
Nsbsbsg77
g80
(g131
S'\x00\x00\x00\x00\x00@U@'
p2021
tp2022
Rp2023
sg78
g165
sg79
g0
(g1
g2
Ntp2024
Rp2025
(dp2026
g6
Nsg7
g0
(g1
g2
Ntp2027
Rp2028
(dp2029
g6
Nsg7
g0
(g1
g2
Ntp2030
Rp2031
(dp2032
g6
Nsg7
g0
(g1
g2
Ntp2033
Rp2034
(dp2035
g6
Nsg7
g0
(g1
g2
Ntp2036
Rp2037
(dp2038
g6
Nsg7
g0
(g1
g2
Ntp2039
Rp2040
(dp2041
g6
Nsg7
g0
(g1
g2
Ntp2042
Rp2043
(dp2044
g6
Nsg7
g0
(g1
g2
Ntp2045
Rp2046
(dp2047
g6
Nsg7
g0
(g1
g2
Ntp2048
Rp2049
(dp2050
g6
Nsg7
g0
(g1
g2
Ntp2051
Rp2052
(dp2053
g6
Nsg7
g0
(g1
g2
Ntp2054
Rp2055
(dp2056
g6
I0
sg7
Nsg77
Nsg78
Nsg79
Nsbsg77
g80
(g84
S'\x00\x00\x00\x00\x00\x00\x00\x00'
p2057
tp2058
Rp2059
sg78
g343
sg79
g0
(g1
g2
Ntp2060
Rp2061
(dp2062
g6
I1
sg7
Nsg77
Nsg78
Nsg79
Nsbsbsg77
g80
(g84
S'\x00\x00\x00\x00\x00\x00\x00\x00'
p2063
tp2064
Rp2065
sg78
g350
sg79
g0
(g1
g2
Ntp2066
Rp2067
(dp2068
g6
I1
sg7
Nsg77
Nsg78
Nsg79
Nsbsbsg77
g80
(g84
S'\x00\x00\x00\x00\x00\x00\x00\x00'
p2069
tp2070
Rp2071
sg78
g90
sg79
g0
(g1
g2
Ntp2072
Rp2073
(dp2074
g6
I1
sg7
Nsg77
Nsg78
Nsg79
Nsbsbsg77
g80
(g84
S'\x00\x00\x00\x00\x00\x00\x00\x00'
p2075
tp2076
Rp2077
sg78
g97
sg79
g0
(g1
g2
Ntp2078
Rp2079
(dp2080
g6
I1
sg7
Nsg77
Nsg78
Nsg79
Nsbsbsg77
g80
(g84
S'\x00\x00\x00\x00\x00\x00\x00\x00'
p2081
tp2082
Rp2083
sg78
g104
sg79
g0
(g1
g2
Ntp2084
Rp2085
(dp2086
g6
I1
sg7
Nsg77
Nsg78
Nsg79
Nsbsbsg77
g80
(g84
S'\x00\x00\x00\x00\x00\x00\x00\x00'
p2087
tp2088
Rp2089
sg78
g111
sg79
g0
(g1
g2
Ntp2090
Rp2091
(dp2092
g6
I1
sg7
Nsg77
Nsg78
Nsg79
Nsbsbsg77
g80
(g84
S'\x00\x00\x00\x00\x00\x00\x00\x00'
p2093
tp2094
Rp2095
sg78
g125
sg79
g0
(g1
g2
Ntp2096
Rp2097
(dp2098
g6
I1
sg7
Nsg77
Nsg78
Nsg79
Nsbsbsg77
g80
(g131
S'\x00\x00\x00\x00\x00\x00\xf0?'
p2099
tp2100
Rp2101
sg78
g137
sg79
g0
(g1
g2
Ntp2102
Rp2103
(dp2104
g6
I1
sg7
Nsg77
Nsg78
Nsg79
Nsbsbsg77
g80
(g84
S'\x00\x00\x00\x00\x00\x00\x00\x00'
p2105
tp2106
Rp2107
sg78
g144
sg79
g0
(g1
g2
Ntp2108
Rp2109
(dp2110
g6
I1
sg7
Nsg77
Nsg78
Nsg79
Nsbsbsg77
g80
(g84
S'\x01\x00\x00\x00\x00\x00\x00\x00'
p2111
tp2112
Rp2113
sg78
g118
sg79
g0
(g1
g2
Ntp2114
Rp2115
(dp2116
g6
Nsg7
g0
(g1
g2
Ntp2117
Rp2118
(dp2119
g6
Nsg7
g0
(g1
g2
Ntp2120
Rp2121
(dp2122
g6
Nsg7
g0
(g1
g2
Ntp2123
Rp2124
(dp2125
g6
Nsg7
g0
(g1
g2
Ntp2126
Rp2127
(dp2128
g6
Nsg7
g0
(g1
g2
Ntp2129
Rp2130
(dp2131
g6
Nsg7
g0
(g1
g2
Ntp2132
Rp2133
(dp2134
g6
Nsg7
g0
(g1
g2
Ntp2135
Rp2136
(dp2137
g6
Nsg7
g0
(g1
g2
Ntp2138
Rp2139
(dp2140
g6
Nsg7
g0
(g1
g2
Ntp2141
Rp2142
(dp2143
g6
I0
sg7
Nsg77
Nsg78
Nsg79
Nsbsg77
g80
(g84
S'\x00\x00\x00\x00\x00\x00\x00\x00'
p2144
tp2145
Rp2146
sg78
g90
sg79
g0
(g1
g2
Ntp2147
Rp2148
(dp2149
g6
I1
sg7
Nsg77
Nsg78
Nsg79
Nsbsbsg77
g80
(g84
S'\x00\x00\x00\x00\x00\x00\x00\x00'
p2150
tp2151
Rp2152
sg78
g97
sg79
g0
(g1
g2
Ntp2153
Rp2154
(dp2155
g6
I1
sg7
Nsg77
Nsg78
Nsg79
Nsbsbsg77
g80
(g84
S'\x00\x00\x00\x00\x00\x00\x00\x00'
p2156
tp2157
Rp2158
sg78
g104
sg79
g0
(g1
g2
Ntp2159
Rp2160
(dp2161
g6
I1
sg7
Nsg77
Nsg78
Nsg79
Nsbsbsg77
g80
(g84
S'\x00\x00\x00\x00\x00\x00\x00\x00'
p2162
tp2163
Rp2164
sg78
g111
sg79
g0
(g1
g2
Ntp2165
Rp2166
(dp2167
g6
I1
sg7
Nsg77
Nsg78
Nsg79
Nsbsbsg77
g80
(g84
S'\x00\x00\x00\x00\x00\x00\x00\x00'
p2168
tp2169
Rp2170
sg78
g125
sg79
g0
(g1
g2
Ntp2171
Rp2172
(dp2173
g6
I1
sg7
Nsg77
Nsg78
Nsg79
Nsbsbsg77
g80
(g131
S'\x00\x00\x00\x00\x00\x00\xf0?'
p2174
tp2175
Rp2176
sg78
g137
sg79
g0
(g1
g2
Ntp2177
Rp2178
(dp2179
g6
I1
sg7
Nsg77
Nsg78
Nsg79
Nsbsbsg77
g80
(g84
S'\x00\x00\x00\x00\x00\x00\x00\x00'
p2180
tp2181
Rp2182
sg78
g144
sg79
g0
(g1
g2
Ntp2183
Rp2184
(dp2185
g6
I1
sg7
Nsg77
Nsg78
Nsg79
Nsbsbsg77
g80
(g84
S'\x00\x00\x00\x00\x00\x00\x00\x00'
p2186
tp2187
Rp2188
sg78
g343
sg79
g0
(g1
g2
Ntp2189
Rp2190
(dp2191
g6
I1
sg7
Nsg77
Nsg78
Nsg79
Nsbsbsg77
g80
(g84
S'\x00\x00\x00\x00\x00\x00\x00\x00'
p2192
tp2193
Rp2194
sg78
g350
sg79
g0
(g1
g2
Ntp2195
Rp2196
(dp2197
g6
I1
sg7
Nsg77
Nsg78
Nsg79
Nsbsbsbsbsg77
g80
(g84
S'\x00\x00\x00\x00\x00\x00\x00\x00'
p2198
tp2199
Rp2200
sg78
g544
sg79
g0
(g1
g2
Ntp2201
Rp2202
(dp2203
g6
I1
sg7
Nsg77
Nsg78
Nsg79
Nsbsbsg77
g80
(g84
S'\x00\x00\x00\x00\x00\x00\x00\x00'
p2204
tp2205
Rp2206
sg78
g1416
sg79
g0
(g1
g2
Ntp2207
Rp2208
(dp2209
g6
I1
sg7
Nsg77
Nsg78
Nsg79
Nsbsbsg77
g80
(g131
S'\x00\x00\x00\x00\x00\x00\x00\x00'
p2210
tp2211
Rp2212
sg78
g1402
sg79
g0
(g1
g2
Ntp2213
Rp2214
(dp2215
g6
I1
sg7
Nsg77
Nsg78
Nsg79
Nsbsbsbsg77
g80
(g84
S'\x00\x00\x00\x00\x00\x00\x00\x00'
p2216
tp2217
Rp2218
sg78
g1395
sg79
g0
(g1
g2
Ntp2219
Rp2220
(dp2221
g6
I1
sg7
Nsg77
Nsg78
Nsg79
Nsbsbsg77
g80
(g84
S'\xfb\xc5\xc9\xfe\xff\xff\xff\xff'
p2222
tp2223
Rp2224
sg78
g551
sg79
g0
(g1
g2
Ntp2225
Rp2226
(dp2227
g6
Nsg7
g0
(g1
g2
Ntp2228
Rp2229
(dp2230
g6
Nsg7
g0
(g1
g2
Ntp2231
Rp2232
(dp2233
g6
Nsg7
g0
(g1
g2
Ntp2234
Rp2235
(dp2236
g6
Nsg7
g0
(g1
g2
Ntp2237
Rp2238
(dp2239
g6
Nsg7
g0
(g1
g2
Ntp2240
Rp2241
(dp2242
g6
Nsg7
g0
(g1
g2
Ntp2243
Rp2244
(dp2245
g6
Nsg7
g0
(g1
g2
Ntp2246
Rp2247
(dp2248
g6
Nsg7
g0
(g1
g2
Ntp2249
Rp2250
(dp2251
g6
Nsg7
g0
(g1
g2
Ntp2252
Rp2253
(dp2254
g6
Nsg7
g0
(g1
g2
Ntp2255
Rp2256
(dp2257
g6
Nsg7
g0
(g1
g2
Ntp2258
Rp2259
(dp2260
g6
Nsg7
g0
(g1
g2
Ntp2261
Rp2262
(dp2263
g6
Nsg7
g0
(g1
g2
Ntp2264
Rp2265
(dp2266
g6
Nsg7
g0
(g1
g2
Ntp2267
Rp2268
(dp2269
g6
Nsg7
g0
(g1
g2
Ntp2270
Rp2271
(dp2272
g6
Nsg7
g0
(g1
g2
Ntp2273
Rp2274
(dp2275
g6
I0
sg7
Nsg77
Nsg78
Nsg79
Nsbsg77
g80
(g84
S'\x00\x00\x00\x00\x00\x00\x00\x00'
p2276
tp2277
Rp2278
sg78
g90
sg79
g0
(g1
g2
Ntp2279
Rp2280
(dp2281
g6
I1
sg7
Nsg77
Nsg78
Nsg79
Nsbsbsg77
g80
(g84
S'\x00\x00\x00\x00\x00\x00\x00\x00'
p2282
tp2283
Rp2284
sg78
g97
sg79
g0
(g1
g2
Ntp2285
Rp2286
(dp2287
g6
I1
sg7
Nsg77
Nsg78
Nsg79
Nsbsbsg77
g80
(g84
S'\x00\x00\x00\x00\x00\x00\x00\x00'
p2288
tp2289
Rp2290
sg78
g104
sg79
g0
(g1
g2
Ntp2291
Rp2292
(dp2293
g6
I1
sg7
Nsg77
Nsg78
Nsg79
Nsbsbsg77
g80
(g84
S'\x00\x00\x00\x00\x00\x00\x00\x00'
p2294
tp2295
Rp2296
sg78
g111
sg79
g0
(g1
g2
Ntp2297
Rp2298
(dp2299
g6
I1
sg7
Nsg77
Nsg78
Nsg79
Nsbsbsg77
g80
(g84
S'\x00\x00\x00\x00\x00\x00\x00\x00'
p2300
tp2301
Rp2302
sg78
g118
sg79
g0
(g1
g2
Ntp2303
Rp2304
(dp2305
g6
I1
sg7
Nsg77
Nsg78
Nsg79
Nsbsbsg77
g80
(g84
S'\x00\x00\x00\x00\x00\x00\x00\x00'
p2306
tp2307
Rp2308
sg78
g125
sg79
g0
(g1
g2
Ntp2309
Rp2310
(dp2311
g6
I1
sg7
Nsg77
Nsg78
Nsg79
Nsbsbsg77
g80
(g84
S'\x00\x00\x00\x00\x00\x00\x00\x00'
p2312
tp2313
Rp2314
sg78
g1395
sg79
g0
(g1
g2
Ntp2315
Rp2316
(dp2317
g6
I1
sg7
Nsg77
Nsg78
Nsg79
Nsbsbsg77
g80
(g131
S'\x00\x00\x00\x00\x00\x00\xf0?'
p2318
tp2319
Rp2320
sg78
g137
sg79
g0
(g1
g2
Ntp2321
Rp2322
(dp2323
g6
I1
sg7
Nsg77
Nsg78
Nsg79
Nsbsbsg77
g80
(g84
S'\x00\x00\x00\x00\x00\x00\x00\x00'
p2324
tp2325
Rp2326
sg78
g144
sg79
g0
(g1
g2
Ntp2327
Rp2328
(dp2329
g6
I1
sg7
Nsg77
Nsg78
Nsg79
Nsbsbsg77
g80
(g84
S'\x01\x00\x00\x00\x00\x00\x00\x00'
p2330
tp2331
Rp2332
sg78
g544
sg79
g0
(g1
g2
Ntp2333
Rp2334
(dp2335
g6
Nsg7
g0
(g1
g2
Ntp2336
Rp2337
(dp2338
g6
Nsg7
g0
(g1
g2
Ntp2339
Rp2340
(dp2341
g6
Nsg7
g0
(g1
g2
Ntp2342
Rp2343
(dp2344
g6
Nsg7
g0
(g1
g2
Ntp2345
Rp2346
(dp2347
g6
Nsg7
g0
(g1
g2
Ntp2348
Rp2349
(dp2350
g6
Nsg7
g0
(g1
g2
Ntp2351
Rp2352
(dp2353
g6
Nsg7
g0
(g1
g2
Ntp2354
Rp2355
(dp2356
g6
Nsg7
g0
(g1
g2
Ntp2357
Rp2358
(dp2359
g6
Nsg7
g0
(g1
g2
Ntp2360
Rp2361
(dp2362
g6
I0
sg7
Nsg77
Nsg78
Nsg79
Nsbsg77
g80
(g84
S'\x00\x00\x00\x00\x00\x00\x00\x00'
p2363
tp2364
Rp2365
sg78
g90
sg79
g0
(g1
g2
Ntp2366
Rp2367
(dp2368
g6
I1
sg7
Nsg77
Nsg78
Nsg79
Nsbsbsg77
g80
(g84
S'\x00\x00\x00\x00\x00\x00\x00\x00'
p2369
tp2370
Rp2371
sg78
g97
sg79
g0
(g1
g2
Ntp2372
Rp2373
(dp2374
g6
I1
sg7
Nsg77
Nsg78
Nsg79
Nsbsbsg77
g80
(g84
S'\x00\x00\x00\x00\x00\x00\x00\x00'
p2375
tp2376
Rp2377
sg78
g104
sg79
g0
(g1
g2
Ntp2378
Rp2379
(dp2380
g6
I1
sg7
Nsg77
Nsg78
Nsg79
Nsbsbsg77
g80
(g84
S'\x00\x00\x00\x00\x00\x00\x00\x00'
p2381
tp2382
Rp2383
sg78
g111
sg79
g0
(g1
g2
Ntp2384
Rp2385
(dp2386
g6
I1
sg7
Nsg77
Nsg78
Nsg79
Nsbsbsg77
g80
(g84
S'\x00\x00\x00\x00\x00\x00\x00\x00'
p2387
tp2388
Rp2389
sg78
g118
sg79
g0
(g1
g2
Ntp2390
Rp2391
(dp2392
g6
I1
sg7
Nsg77
Nsg78
Nsg79
Nsbsbsg77
g80
(g84
S'\x00\x00\x00\x00\x00\x00\x00\x00'
p2393
tp2394
Rp2395
sg78
g125
sg79
g0
(g1
g2
Ntp2396
Rp2397
(dp2398
g6
I1
sg7
Nsg77
Nsg78
Nsg79
Nsbsbsg77
g80
(g84
S'\x00\x00\x00\x00\x00\x00\x00\x00'
p2399
tp2400
Rp2401
sg78
g1395
sg79
g0
(g1
g2
Ntp2402
Rp2403
(dp2404
g6
I1
sg7
Nsg77
Nsg78
Nsg79
Nsbsbsg77
g80
(g131
S'\x00\x00\x00\x00\x00\x00\xf0?'
p2405
tp2406
Rp2407
sg78
g137
sg79
g0
(g1
g2
Ntp2408
Rp2409
(dp2410
g6
I1
sg7
Nsg77
Nsg78
Nsg79
Nsbsbsg77
g80
(g84
S'\x00\x00\x00\x00\x00\x00\x00\x00'
p2411
tp2412
Rp2413
sg78
g144
sg79
g0
(g1
g2
Ntp2414
Rp2415
(dp2416
g6
I1
sg7
Nsg77
Nsg78
Nsg79
Nsbsbsbsg77
g80
(g131
S'\x00\x00\x00\x00\x00\x00\x1a@'
p2417
tp2418
Rp2419
sg78
g1402
sg79
g0
(g1
g2
Ntp2420
Rp2421
(dp2422
g6
Nsg7
g0
(g1
g2
Ntp2423
Rp2424
(dp2425
g6
Nsg7
g0
(g1
g2
Ntp2426
Rp2427
(dp2428
g6
Nsg7
g0
(g1
g2
Ntp2429
Rp2430
(dp2431
g6
Nsg7
g0
(g1
g2
Ntp2432
Rp2433
(dp2434
g6
Nsg7
g0
(g1
g2
Ntp2435
Rp2436
(dp2437
g6
Nsg7
g0
(g1
g2
Ntp2438
Rp2439
(dp2440
g6
Nsg7
g0
(g1
g2
Ntp2441
Rp2442
(dp2443
g6
Nsg7
g0
(g1
g2
Ntp2444
Rp2445
(dp2446
g6
Nsg7
g0
(g1
g2
Ntp2447
Rp2448
(dp2449
g6
Nsg7
g0
(g1
g2
Ntp2450
Rp2451
(dp2452
g6
I0
sg7
Nsg77
Nsg78
Nsg79
Nsbsg77
g80
(g84
S'\x00\x00\x00\x00\x00\x00\x00\x00'
p2453
tp2454
Rp2455
sg78
g90
sg79
g0
(g1
g2
Ntp2456
Rp2457
(dp2458
g6
I1
sg7
Nsg77
Nsg78
Nsg79
Nsbsbsg77
g80
(g84
S'\x00\x00\x00\x00\x00\x00\x00\x00'
p2459
tp2460
Rp2461
sg78
g544
sg79
g0
(g1
g2
Ntp2462
Rp2463
(dp2464
g6
I1
sg7
Nsg77
Nsg78
Nsg79
Nsbsbsg77
g80
(g84
S'\x00\x00\x00\x00\x00\x00\x00\x00'
p2465
tp2466
Rp2467
sg78
g97
sg79
g0
(g1
g2
Ntp2468
Rp2469
(dp2470
g6
I1
sg7
Nsg77
Nsg78
Nsg79
Nsbsbsg77
g80
(g84
S'\x00\x00\x00\x00\x00\x00\x00\x00'
p2471
tp2472
Rp2473
sg78
g104
sg79
g0
(g1
g2
Ntp2474
Rp2475
(dp2476
g6
I1
sg7
Nsg77
Nsg78
Nsg79
Nsbsbsg77
g80
(g84
S'\x00\x00\x00\x00\x00\x00\x00\x00'
p2477
tp2478
Rp2479
sg78
g111
sg79
g0
(g1
g2
Ntp2480
Rp2481
(dp2482
g6
I1
sg7
Nsg77
Nsg78
Nsg79
Nsbsbsg77
g80
(g84
S'\x00\x00\x00\x00\x00\x00\x00\x00'
p2483
tp2484
Rp2485
sg78
g118
sg79
g0
(g1
g2
Ntp2486
Rp2487
(dp2488
g6
I1
sg7
Nsg77
Nsg78
Nsg79
Nsbsbsg77
g80
(g84
S'\x00\x00\x00\x00\x00\x00\x00\x00'
p2489
tp2490
Rp2491
sg78
g125
sg79
g0
(g1
g2
Ntp2492
Rp2493
(dp2494
g6
I1
sg7
Nsg77
Nsg78
Nsg79
Nsbsbsg77
g80
(g84
S'\x00\x00\x00\x00\x00\x00\x00\x00'
p2495
tp2496
Rp2497
sg78
g1395
sg79
g0
(g1
g2
Ntp2498
Rp2499
(dp2500
g6
I1
sg7
Nsg77
Nsg78
Nsg79
Nsbsbsg77
g80
(g131
S'\x00\x00\x00\x00\x00\x00\xf0?'
p2501
tp2502
Rp2503
sg78
g137
sg79
g0
(g1
g2
Ntp2504
Rp2505
(dp2506
g6
I1
sg7
Nsg77
Nsg78
Nsg79
Nsbsbsg77
g80
(g84
S'\x00\x00\x00\x00\x00\x00\x00\x00'
p2507
tp2508
Rp2509
sg78
g144
sg79
g0
(g1
g2
Ntp2510
Rp2511
(dp2512
g6
I1
sg7
Nsg77
Nsg78
Nsg79
Nsbsbsbsg77
g80
(g84
S'\x00\x00\x00\x00\x00\x00\x00\x00'
p2513
tp2514
Rp2515
sg78
g1416
sg79
g0
(g1
g2
Ntp2516
Rp2517
(dp2518
g6
I1
sg7
Nsg77
Nsg78
Nsg79
Nsbsbsg77
g80
(g84
S'\x00\x00\x00\x00\x00\x00\x00\x00'
p2519
tp2520
Rp2521
sg78
g343
sg79
g0
(g1
g2
Ntp2522
Rp2523
(dp2524
g6
I1
sg7
Nsg77
Nsg78
Nsg79
Nsbsbsg77
g80
(g84
S'\x00\x00\x00\x00\x00\x00\x00\x00'
p2525
tp2526
Rp2527
sg78
g350
sg79
g0
(g1
g2
Ntp2528
Rp2529
(dp2530
g6
I1
sg7
Nsg77
Nsg78
Nsg79
Nsbsbsg77
g80
(g131
S'\x00\x00\x00\x00\x00\x80Q@'
p2531
tp2532
Rp2533
sg78
g165
sg79
g0
(g1
g2
Ntp2534
Rp2535
(dp2536
g6
Nsg7
g0
(g1
g2
Ntp2537
Rp2538
(dp2539
g6
Nsg7
g0
(g1
g2
Ntp2540
Rp2541
(dp2542
g6
Nsg7
g0
(g1
g2
Ntp2543
Rp2544
(dp2545
g6
Nsg7
g0
(g1
g2
Ntp2546
Rp2547
(dp2548
g6
Nsg7
g0
(g1
g2
Ntp2549
Rp2550
(dp2551
g6
Nsg7
g0
(g1
g2
Ntp2552
Rp2553
(dp2554
g6
Nsg7
g0
(g1
g2
Ntp2555
Rp2556
(dp2557
g6
Nsg7
g0
(g1
g2
Ntp2558
Rp2559
(dp2560
g6
Nsg7
g0
(g1
g2
Ntp2561
Rp2562
(dp2563
g6
Nsg7
g0
(g1
g2
Ntp2564
Rp2565
(dp2566
g6
Nsg7
g0
(g1
g2
Ntp2567
Rp2568
(dp2569
g6
Nsg7
g0
(g1
g2
Ntp2570
Rp2571
(dp2572
g6
Nsg7
g0
(g1
g2
Ntp2573
Rp2574
(dp2575
g6
Nsg7
g0
(g1
g2
Ntp2576
Rp2577
(dp2578
g6
I0
sg7
Nsg77
Nsg78
Nsg79
Nsbsg77
g80
(g84
S'\x00\x00\x00\x00\x00\x00\x00\x00'
p2579
tp2580
Rp2581
sg78
g343
sg79
g0
(g1
g2
Ntp2582
Rp2583
(dp2584
g6
I1
sg7
Nsg77
Nsg78
Nsg79
Nsbsbsg77
g80
(g84
S'\x00\x00\x00\x00\x00\x00\x00\x00'
p2585
tp2586
Rp2587
sg78
g350
sg79
g0
(g1
g2
Ntp2588
Rp2589
(dp2590
g6
I1
sg7
Nsg77
Nsg78
Nsg79
Nsbsbsg77
g80
(g84
S'\x00\x00\x00\x00\x00\x00\x00\x00'
p2591
tp2592
Rp2593
sg78
g90
sg79
g0
(g1
g2
Ntp2594
Rp2595
(dp2596
g6
I1
sg7
Nsg77
Nsg78
Nsg79
Nsbsbsg77
g80
(g84
S'\x00\x00\x00\x00\x00\x00\x00\x00'
p2597
tp2598
Rp2599
sg78
g544
sg79
g0
(g1
g2
Ntp2600
Rp2601
(dp2602
g6
I1
sg7
Nsg77
Nsg78
Nsg79
Nsbsbsg77
g80
(g84
S'\x00\x00\x00\x00\x00\x00\x00\x00'
p2603
tp2604
Rp2605
sg78
g97
sg79
g0
(g1
g2
Ntp2606
Rp2607
(dp2608
g6
I1
sg7
Nsg77
Nsg78
Nsg79
Nsbsbsg77
g80
(g84
S'\x01\x00\x00\x00\x00\x00\x00\x00'
p2609
tp2610
Rp2611
sg78
g1416
sg79
g0
(g1
g2
Ntp2612
Rp2613
(dp2614
g6
I1
sg7
Nsg77
Nsg78
Nsg79
Nsbsbsg77
g80
(g84
S'\x00\x00\x00\x00\x00\x00\x00\x00'
p2615
tp2616
Rp2617
sg78
g104
sg79
g0
(g1
g2
Ntp2618
Rp2619
(dp2620
g6
I1
sg7
Nsg77
Nsg78
Nsg79
Nsbsbsg77
g80
(g84
S'\x00\x00\x00\x00\x00\x00\x00\x00'
p2621
tp2622
Rp2623
sg78
g111
sg79
g0
(g1
g2
Ntp2624
Rp2625
(dp2626
g6
I1
sg7
Nsg77
Nsg78
Nsg79
Nsbsbsg77
g80
(g84
S'\x00\x00\x00\x00\x00\x00\x00\x00'
p2627
tp2628
Rp2629
sg78
g118
sg79
g0
(g1
g2
Ntp2630
Rp2631
(dp2632
g6
I1
sg7
Nsg77
Nsg78
Nsg79
Nsbsbsg77
g80
(g84
S'\x00\x00\x00\x00\x00\x00\x00\x00'
p2633
tp2634
Rp2635
sg78
g125
sg79
g0
(g1
g2
Ntp2636
Rp2637
(dp2638
g6
I1
sg7
Nsg77
Nsg78
Nsg79
Nsbsbsg77
g80
(g84
S'\x00\x00\x00\x00\x00\x00\x00\x00'
p2639
tp2640
Rp2641
sg78
g1395
sg79
g0
(g1
g2
Ntp2642
Rp2643
(dp2644
g6
I1
sg7
Nsg77
Nsg78
Nsg79
Nsbsbsg77
g80
(g131
S'\x00\x00\x00\x00\x00\x00\xf0?'
p2645
tp2646
Rp2647
sg78
g137
sg79
g0
(g1
g2
Ntp2648
Rp2649
(dp2650
g6
I1
sg7
Nsg77
Nsg78
Nsg79
Nsbsbsg77
g80
(g84
S'\x00\x00\x00\x00\x00\x00\x00\x00'
p2651
tp2652
Rp2653
sg78
g144
sg79
g0
(g1
g2
Ntp2654
Rp2655
(dp2656
g6
I1
sg7
Nsg77
Nsg78
Nsg79
Nsbsbsg77
g80
(g131
S'\x00\x00\x00\x00\x00\x00.@'
p2657
tp2658
Rp2659
sg78
g1402
sg79
g0
(g1
g2
Ntp2660
Rp2661
(dp2662
g6
I1
sg7
Nsg77
Nsg78
Nsg79
Nsbsbsbsg77
g80
(g84
S'\x1d\x00\x00\x00\x00\x00\x00\x00'
p2663
tp2664
Rp2665
sg78
g1409
sg79
g0
(g1
g2
Ntp2666
Rp2667
(dp2668
g6
Nsg7
g0
(g1
g2
Ntp2669
Rp2670
(dp2671
g6
Nsg7
g0
(g1
g2
Ntp2672
Rp2673
(dp2674
g6
Nsg7
g0
(g1
g2
Ntp2675
Rp2676
(dp2677
g6
Nsg7
g0
(g1
g2
Ntp2678
Rp2679
(dp2680
g6
Nsg7
g0
(g1
g2
Ntp2681
Rp2682
(dp2683
g6
Nsg7
g0
(g1
g2
Ntp2684
Rp2685
(dp2686
g6
Nsg7
g0
(g1
g2
Ntp2687
Rp2688
(dp2689
g6
Nsg7
g0
(g1
g2
Ntp2690
Rp2691
(dp2692
g6
Nsg7
g0
(g1
g2
Ntp2693
Rp2694
(dp2695
g6
Nsg7
g0
(g1
g2
Ntp2696
Rp2697
(dp2698
g6
Nsg7
g0
(g1
g2
Ntp2699
Rp2700
(dp2701
g6
Nsg7
g0
(g1
g2
Ntp2702
Rp2703
(dp2704
g6
Nsg7
g0
(g1
g2
Ntp2705
Rp2706
(dp2707
g6
Nsg7
g0
(g1
g2
Ntp2708
Rp2709
(dp2710
g6
Nsg7
g0
(g1
g2
Ntp2711
Rp2712
(dp2713
g6
I0
sg7
Nsg77
Nsg78
Nsg79
Nsbsg77
g80
(g84
S'\x00\x00\x00\x00\x00\x00\x00\x00'
p2714
tp2715
Rp2716
sg78
g343
sg79
g0
(g1
g2
Ntp2717
Rp2718
(dp2719
g6
I1
sg7
Nsg77
Nsg78
Nsg79
Nsbsbsg77
g80
(g84
S'\x00\x00\x00\x00\x00\x00\x00\x00'
p2720
tp2721
Rp2722
sg78
g350
sg79
g0
(g1
g2
Ntp2723
Rp2724
(dp2725
g6
I1
sg7
Nsg77
Nsg78
Nsg79
Nsbsbsg77
g80
(g84
S'\x00\x00\x00\x00\x00\x00\x00\x00'
p2726
tp2727
Rp2728
sg78
g90
sg79
g0
(g1
g2
Ntp2729
Rp2730
(dp2731
g6
I1
sg7
Nsg77
Nsg78
Nsg79
Nsbsbsg77
g80
(g84
S'\x00\x00\x00\x00\x00\x00\x00\x00'
p2732
tp2733
Rp2734
sg78
g97
sg79
g0
(g1
g2
Ntp2735
Rp2736
(dp2737
g6
I1
sg7
Nsg77
Nsg78
Nsg79
Nsbsbsg77
g80
(g84
S'\x00\x00\x00\x00\x00\x00\x00\x00'
p2738
tp2739
Rp2740
sg78
g104
sg79
g0
(g1
g2
Ntp2741
Rp2742
(dp2743
g6
I1
sg7
Nsg77
Nsg78
Nsg79
Nsbsbsg77
g80
(g84
S'\x00\x00\x00\x00\x00\x00\x00\x00'
p2744
tp2745
Rp2746
sg78
g111
sg79
g0
(g1
g2
Ntp2747
Rp2748
(dp2749
g6
I1
sg7
Nsg77
Nsg78
Nsg79
Nsbsbsg77
g80
(g84
S'\x00\x00\x00\x00\x00\x00\x00\x00'
p2750
tp2751
Rp2752
sg78
g118
sg79
g0
(g1
g2
Ntp2753
Rp2754
(dp2755
g6
I1
sg7
Nsg77
Nsg78
Nsg79
Nsbsbsg77
g80
(g84
S'\x00\x00\x00\x00\x00\x00\x00\x00'
p2756
tp2757
Rp2758
sg78
g125
sg79
g0
(g1
g2
Ntp2759
Rp2760
(dp2761
g6
I1
sg7
Nsg77
Nsg78
Nsg79
Nsbsbsg77
g80
(g84
S'\x00\x00\x00\x00\x00\x00\x00\x00'
p2762
tp2763
Rp2764
sg78
g1395
sg79
g0
(g1
g2
Ntp2765
Rp2766
(dp2767
g6
I1
sg7
Nsg77
Nsg78
Nsg79
Nsbsbsg77
g80
(g131
S'\x00\x00\x00\x00\x00\x00\xf0?'
p2768
tp2769
Rp2770
sg78
g137
sg79
g0
(g1
g2
Ntp2771
Rp2772
(dp2773
g6
I1
sg7
Nsg77
Nsg78
Nsg79
Nsbsbsg77
g80
(g84
S'\x00\x00\x00\x00\x00\x00\x00\x00'
p2774
tp2775
Rp2776
sg78
g144
sg79
g0
(g1
g2
Ntp2777
Rp2778
(dp2779
g6
I1
sg7
Nsg77
Nsg78
Nsg79
Nsbsbsg77
g80
(g84
S'\x00\x00\x00\x00\x00\x00\x00\x00'
p2780
tp2781
Rp2782
sg78
g544
sg79
g0
(g1
g2
Ntp2783
Rp2784
(dp2785
g6
I1
sg7
Nsg77
Nsg78
Nsg79
Nsbsbsg77
g80
(g131
S'\x00\x00\x00\x00\x00@P@'
p2786
tp2787
Rp2788
sg78
g165
sg79
g0
(g1
g2
Ntp2789
Rp2790
(dp2791
g6
Nsg7
g0
(g1
g2
Ntp2792
Rp2793
(dp2794
g6
Nsg7
g0
(g1
g2
Ntp2795
Rp2796
(dp2797
g6
Nsg7
g0
(g1
g2
Ntp2798
Rp2799
(dp2800
g6
Nsg7
g0
(g1
g2
Ntp2801
Rp2802
(dp2803
g6
Nsg7
g0
(g1
g2
Ntp2804
Rp2805
(dp2806
g6
Nsg7
g0
(g1
g2
Ntp2807
Rp2808
(dp2809
g6
Nsg7
g0
(g1
g2
Ntp2810
Rp2811
(dp2812
g6
Nsg7
g0
(g1
g2
Ntp2813
Rp2814
(dp2815
g6
Nsg7
g0
(g1
g2
Ntp2816
Rp2817
(dp2818
g6
Nsg7
g0
(g1
g2
Ntp2819
Rp2820
(dp2821
g6
Nsg7
g0
(g1
g2
Ntp2822
Rp2823
(dp2824
g6
Nsg7
g0
(g1
g2
Ntp2825
Rp2826
(dp2827
g6
I0
sg7
Nsg77
Nsg78
Nsg79
Nsbsg77
g80
(g84
S'\x00\x00\x00\x00\x00\x00\x00\x00'
p2828
tp2829
Rp2830
sg78
g343
sg79
g0
(g1
g2
Ntp2831
Rp2832
(dp2833
g6
I1
sg7
Nsg77
Nsg78
Nsg79
Nsbsbsg77
g80
(g84
S'\x00\x00\x00\x00\x00\x00\x00\x00'
p2834
tp2835
Rp2836
sg78
g350
sg79
g0
(g1
g2
Ntp2837
Rp2838
(dp2839
g6
I1
sg7
Nsg77
Nsg78
Nsg79
Nsbsbsg77
g80
(g84
S'\x00\x00\x00\x00\x00\x00\x00\x00'
p2840
tp2841
Rp2842
sg78
g90
sg79
g0
(g1
g2
Ntp2843
Rp2844
(dp2845
g6
I1
sg7
Nsg77
Nsg78
Nsg79
Nsbsbsg77
g80
(g84
S'\x00\x00\x00\x00\x00\x00\x00\x00'
p2846
tp2847
Rp2848
sg78
g544
sg79
g0
(g1
g2
Ntp2849
Rp2850
(dp2851
g6
I1
sg7
Nsg77
Nsg78
Nsg79
Nsbsbsg77
g80
(g84
S'\x00\x00\x00\x00\x00\x00\x00\x00'
p2852
tp2853
Rp2854
sg78
g97
sg79
g0
(g1
g2
Ntp2855
Rp2856
(dp2857
g6
I1
sg7
Nsg77
Nsg78
Nsg79
Nsbsbsg77
g80
(g84
S'\x00\x00\x00\x00\x00\x00\x00\x00'
p2858
tp2859
Rp2860
sg78
g104
sg79
g0
(g1
g2
Ntp2861
Rp2862
(dp2863
g6
I1
sg7
Nsg77
Nsg78
Nsg79
Nsbsbsg77
g80
(g84
S'\x00\x00\x00\x00\x00\x00\x00\x00'
p2864
tp2865
Rp2866
sg78
g111
sg79
g0
(g1
g2
Ntp2867
Rp2868
(dp2869
g6
I1
sg7
Nsg77
Nsg78
Nsg79
Nsbsbsg77
g80
(g84
S'\x00\x00\x00\x00\x00\x00\x00\x00'
p2870
tp2871
Rp2872
sg78
g118
sg79
g0
(g1
g2
Ntp2873
Rp2874
(dp2875
g6
I1
sg7
Nsg77
Nsg78
Nsg79
Nsbsbsg77
g80
(g84
S'\x00\x00\x00\x00\x00\x00\x00\x00'
p2876
tp2877
Rp2878
sg78
g125
sg79
g0
(g1
g2
Ntp2879
Rp2880
(dp2881
g6
I1
sg7
Nsg77
Nsg78
Nsg79
Nsbsbsg77
g80
(g84
S'\x01\x00\x00\x00\x00\x00\x00\x00'
p2882
tp2883
Rp2884
sg78
g1395
sg79
g0
(g1
g2
Ntp2885
Rp2886
(dp2887
g6
I1
sg7
Nsg77
Nsg78
Nsg79
Nsbsbsg77
g80
(g131
S'\x00\x00\x00\x00\x00\x00\xf0?'
p2888
tp2889
Rp2890
sg78
g137
sg79
g0
(g1
g2
Ntp2891
Rp2892
(dp2893
g6
I1
sg7
Nsg77
Nsg78
Nsg79
Nsbsbsg77
g80
(g84
S'\x00\x00\x00\x00\x00\x00\x00\x00'
p2894
tp2895
Rp2896
sg78
g144
sg79
g0
(g1
g2
Ntp2897
Rp2898
(dp2899
g6
I1
sg7
Nsg77
Nsg78
Nsg79
Nsbsbsbsg77
g80
(g131
S'\x00\x00\x00\x00\x00\x00\x14@'
p2900
tp2901
Rp2902
sg78
g1402
sg79
g0
(g1
g2
Ntp2903
Rp2904
(dp2905
g6
Nsg7
g0
(g1
g2
Ntp2906
Rp2907
(dp2908
g6
Nsg7
g0
(g1
g2
Ntp2909
Rp2910
(dp2911
g6
Nsg7
g0
(g1
g2
Ntp2912
Rp2913
(dp2914
g6
Nsg7
g0
(g1
g2
Ntp2915
Rp2916
(dp2917
g6
Nsg7
g0
(g1
g2
Ntp2918
Rp2919
(dp2920
g6
Nsg7
g0
(g1
g2
Ntp2921
Rp2922
(dp2923
g6
Nsg7
g0
(g1
g2
Ntp2924
Rp2925
(dp2926
g6
Nsg7
g0
(g1
g2
Ntp2927
Rp2928
(dp2929
g6
Nsg7
g0
(g1
g2
Ntp2930
Rp2931
(dp2932
g6
Nsg7
g0
(g1
g2
Ntp2933
Rp2934
(dp2935
g6
Nsg7
g0
(g1
g2
Ntp2936
Rp2937
(dp2938
g6
Nsg7
g0
(g1
g2
Ntp2939
Rp2940
(dp2941
g6
Nsg7
g0
(g1
g2
Ntp2942
Rp2943
(dp2944
g6
I0
sg7
Nsg77
Nsg78
Nsg79
Nsbsg77
g80
(g84
S'\x00\x00\x00\x00\x00\x00\x00\x00'
p2945
tp2946
Rp2947
sg78
g343
sg79
g0
(g1
g2
Ntp2948
Rp2949
(dp2950
g6
I1
sg7
Nsg77
Nsg78
Nsg79
Nsbsbsg77
g80
(g84
S'\x00\x00\x00\x00\x00\x00\x00\x00'
p2951
tp2952
Rp2953
sg78
g350
sg79
g0
(g1
g2
Ntp2954
Rp2955
(dp2956
g6
I1
sg7
Nsg77
Nsg78
Nsg79
Nsbsbsg77
g80
(g84
S'\x00\x00\x00\x00\x00\x00\x00\x00'
p2957
tp2958
Rp2959
sg78
g90
sg79
g0
(g1
g2
Ntp2960
Rp2961
(dp2962
g6
I1
sg7
Nsg77
Nsg78
Nsg79
Nsbsbsg77
g80
(g84
S'\x00\x00\x00\x00\x00\x00\x00\x00'
p2963
tp2964
Rp2965
sg78
g97
sg79
g0
(g1
g2
Ntp2966
Rp2967
(dp2968
g6
I1
sg7
Nsg77
Nsg78
Nsg79
Nsbsbsg77
g80
(g84
S'\x00\x00\x00\x00\x00\x00\x00\x00'
p2969
tp2970
Rp2971
sg78
g104
sg79
g0
(g1
g2
Ntp2972
Rp2973
(dp2974
g6
I1
sg7
Nsg77
Nsg78
Nsg79
Nsbsbsg77
g80
(g84
S'\x00\x00\x00\x00\x00\x00\x00\x00'
p2975
tp2976
Rp2977
sg78
g111
sg79
g0
(g1
g2
Ntp2978
Rp2979
(dp2980
g6
I1
sg7
Nsg77
Nsg78
Nsg79
Nsbsbsg77
g80
(g84
S'\x00\x00\x00\x00\x00\x00\x00\x00'
p2981
tp2982
Rp2983
sg78
g125
sg79
g0
(g1
g2
Ntp2984
Rp2985
(dp2986
g6
I1
sg7
Nsg77
Nsg78
Nsg79
Nsbsbsg77
g80
(g84
S'\x00\x00\x00\x00\x00\x00\x00\x00'
p2987
tp2988
Rp2989
sg78
g1395
sg79
g0
(g1
g2
Ntp2990
Rp2991
(dp2992
g6
I1
sg7
Nsg77
Nsg78
Nsg79
Nsbsbsg77
g80
(g131
S'\x00\x00\x00\x00\x00\x00\xf0?'
p2993
tp2994
Rp2995
sg78
g137
sg79
g0
(g1
g2
Ntp2996
Rp2997
(dp2998
g6
I1
sg7
Nsg77
Nsg78
Nsg79
Nsbsbsg77
g80
(g84
S'\x00\x00\x00\x00\x00\x00\x00\x00'
p2999
tp3000
Rp3001
sg78
g144
sg79
g0
(g1
g2
Ntp3002
Rp3003
(dp3004
g6
I1
sg7
Nsg77
Nsg78
Nsg79
Nsbsbsg77
g80
(g84
S'\x00\x00\x00\x00\x00\x00\x00\x00'
p3005
tp3006
Rp3007
sg78
g118
sg79
g0
(g1
g2
Ntp3008
Rp3009
(dp3010
g6
I1
sg7
Nsg77
Nsg78
Nsg79
Nsbsbsg77
g80
(g131
S'\x00\x00\x00\x00\x00@U@'
p3011
tp3012
Rp3013
sg78
g165
sg79
g0
(g1
g2
Ntp3014
Rp3015
(dp3016
g6
Nsg7
g0
(g1
g2
Ntp3017
Rp3018
(dp3019
g6
Nsg7
g0
(g1
g2
Ntp3020
Rp3021
(dp3022
g6
Nsg7
g0
(g1
g2
Ntp3023
Rp3024
(dp3025
g6
Nsg7
g0
(g1
g2
Ntp3026
Rp3027
(dp3028
g6
Nsg7
g0
(g1
g2
Ntp3029
Rp3030
(dp3031
g6
Nsg7
g0
(g1
g2
Ntp3032
Rp3033
(dp3034
g6
Nsg7
g0
(g1
g2
Ntp3035
Rp3036
(dp3037
g6
Nsg7
g0
(g1
g2
Ntp3038
Rp3039
(dp3040
g6
Nsg7
g0
(g1
g2
Ntp3041
Rp3042
(dp3043
g6
Nsg7
g0
(g1
g2
Ntp3044
Rp3045
(dp3046
g6
Nsg7
g0
(g1
g2
Ntp3047
Rp3048
(dp3049
g6
I0
sg7
Nsg77
Nsg78
Nsg79
Nsbsg77
g80
(g84
S'\x00\x00\x00\x00\x00\x00\x00\x00'
p3050
tp3051
Rp3052
sg78
g343
sg79
g0
(g1
g2
Ntp3053
Rp3054
(dp3055
g6
I1
sg7
Nsg77
Nsg78
Nsg79
Nsbsbsg77
g80
(g84
S'\x00\x00\x00\x00\x00\x00\x00\x00'
p3056
tp3057
Rp3058
sg78
g350
sg79
g0
(g1
g2
Ntp3059
Rp3060
(dp3061
g6
I1
sg7
Nsg77
Nsg78
Nsg79
Nsbsbsg77
g80
(g84
S'\x00\x00\x00\x00\x00\x00\x00\x00'
p3062
tp3063
Rp3064
sg78
g90
sg79
g0
(g1
g2
Ntp3065
Rp3066
(dp3067
g6
I1
sg7
Nsg77
Nsg78
Nsg79
Nsbsbsg77
g80
(g84
S'\x00\x00\x00\x00\x00\x00\x00\x00'
p3068
tp3069
Rp3070
sg78
g97
sg79
g0
(g1
g2
Ntp3071
Rp3072
(dp3073
g6
I1
sg7
Nsg77
Nsg78
Nsg79
Nsbsbsg77
g80
(g84
S'\x00\x00\x00\x00\x00\x00\x00\x00'
p3074
tp3075
Rp3076
sg78
g104
sg79
g0
(g1
g2
Ntp3077
Rp3078
(dp3079
g6
I1
sg7
Nsg77
Nsg78
Nsg79
Nsbsbsg77
g80
(g84
S'\x00\x00\x00\x00\x00\x00\x00\x00'
p3080
tp3081
Rp3082
sg78
g111
sg79
g0
(g1
g2
Ntp3083
Rp3084
(dp3085
g6
I1
sg7
Nsg77
Nsg78
Nsg79
Nsbsbsg77
g80
(g84
S'\x00\x00\x00\x00\x00\x00\x00\x00'
p3086
tp3087
Rp3088
sg78
g125
sg79
g0
(g1
g2
Ntp3089
Rp3090
(dp3091
g6
I1
sg7
Nsg77
Nsg78
Nsg79
Nsbsbsg77
g80
(g84
S'\x00\x00\x00\x00\x00\x00\x00\x00'
p3092
tp3093
Rp3094
sg78
g1395
sg79
g0
(g1
g2
Ntp3095
Rp3096
(dp3097
g6
I1
sg7
Nsg77
Nsg78
Nsg79
Nsbsbsg77
g80
(g131
S'\x00\x00\x00\x00\x00\x00\xf0?'
p3098
tp3099
Rp3100
sg78
g137
sg79
g0
(g1
g2
Ntp3101
Rp3102
(dp3103
g6
I1
sg7
Nsg77
Nsg78
Nsg79
Nsbsbsg77
g80
(g84
S'\x00\x00\x00\x00\x00\x00\x00\x00'
p3104
tp3105
Rp3106
sg78
g144
sg79
g0
(g1
g2
Ntp3107
Rp3108
(dp3109
g6
I1
sg7
Nsg77
Nsg78
Nsg79
Nsbsbsg77
g80
(g84
S'\x01\x00\x00\x00\x00\x00\x00\x00'
p3110
tp3111
Rp3112
sg78
g118
sg79
g0
(g1
g2
Ntp3113
Rp3114
(dp3115
g6
Nsg7
g0
(g1
g2
Ntp3116
Rp3117
(dp3118
g6
Nsg7
g0
(g1
g2
Ntp3119
Rp3120
(dp3121
g6
Nsg7
g0
(g1
g2
Ntp3122
Rp3123
(dp3124
g6
Nsg7
g0
(g1
g2
Ntp3125
Rp3126
(dp3127
g6
Nsg7
g0
(g1
g2
Ntp3128
Rp3129
(dp3130
g6
Nsg7
g0
(g1
g2
Ntp3131
Rp3132
(dp3133
g6
Nsg7
g0
(g1
g2
Ntp3134
Rp3135
(dp3136
g6
Nsg7
g0
(g1
g2
Ntp3137
Rp3138
(dp3139
g6
Nsg7
g0
(g1
g2
Ntp3140
Rp3141
(dp3142
g6
Nsg7
g0
(g1
g2
Ntp3143
Rp3144
(dp3145
g6
I0
sg7
Nsg77
Nsg78
Nsg79
Nsbsg77
g80
(g84
S'\x00\x00\x00\x00\x00\x00\x00\x00'
p3146
tp3147
Rp3148
sg78
g90
sg79
g0
(g1
g2
Ntp3149
Rp3150
(dp3151
g6
I1
sg7
Nsg77
Nsg78
Nsg79
Nsbsbsg77
g80
(g84
S'\x00\x00\x00\x00\x00\x00\x00\x00'
p3152
tp3153
Rp3154
sg78
g97
sg79
g0
(g1
g2
Ntp3155
Rp3156
(dp3157
g6
I1
sg7
Nsg77
Nsg78
Nsg79
Nsbsbsg77
g80
(g84
S'\x00\x00\x00\x00\x00\x00\x00\x00'
p3158
tp3159
Rp3160
sg78
g104
sg79
g0
(g1
g2
Ntp3161
Rp3162
(dp3163
g6
I1
sg7
Nsg77
Nsg78
Nsg79
Nsbsbsg77
g80
(g84
S'\x00\x00\x00\x00\x00\x00\x00\x00'
p3164
tp3165
Rp3166
sg78
g111
sg79
g0
(g1
g2
Ntp3167
Rp3168
(dp3169
g6
I1
sg7
Nsg77
Nsg78
Nsg79
Nsbsbsg77
g80
(g84
S'\x00\x00\x00\x00\x00\x00\x00\x00'
p3170
tp3171
Rp3172
sg78
g125
sg79
g0
(g1
g2
Ntp3173
Rp3174
(dp3175
g6
I1
sg7
Nsg77
Nsg78
Nsg79
Nsbsbsg77
g80
(g84
S'\x00\x00\x00\x00\x00\x00\x00\x00'
p3176
tp3177
Rp3178
sg78
g1395
sg79
g0
(g1
g2
Ntp3179
Rp3180
(dp3181
g6
I1
sg7
Nsg77
Nsg78
Nsg79
Nsbsbsg77
g80
(g131
S'\x00\x00\x00\x00\x00\x00\xf0?'
p3182
tp3183
Rp3184
sg78
g137
sg79
g0
(g1
g2
Ntp3185
Rp3186
(dp3187
g6
I1
sg7
Nsg77
Nsg78
Nsg79
Nsbsbsg77
g80
(g84
S'\x00\x00\x00\x00\x00\x00\x00\x00'
p3188
tp3189
Rp3190
sg78
g144
sg79
g0
(g1
g2
Ntp3191
Rp3192
(dp3193
g6
I1
sg7
Nsg77
Nsg78
Nsg79
Nsbsbsg77
g80
(g84
S'\x00\x00\x00\x00\x00\x00\x00\x00'
p3194
tp3195
Rp3196
sg78
g343
sg79
g0
(g1
g2
Ntp3197
Rp3198
(dp3199
g6
I1
sg7
Nsg77
Nsg78
Nsg79
Nsbsbsg77
g80
(g84
S'\x00\x00\x00\x00\x00\x00\x00\x00'
p3200
tp3201
Rp3202
sg78
g350
sg79
g0
(g1
g2
Ntp3203
Rp3204
(dp3205
g6
I1
sg7
Nsg77
Nsg78
Nsg79
Nsbsbsbsbsg77
g80
(g84
S'\x00\x00\x00\x00\x00\x00\x00\x00'
p3206
tp3207
Rp3208
sg78
g544
sg79
g0
(g1
g2
Ntp3209
Rp3210
(dp3211
g6
I1
sg7
Nsg77
Nsg78
Nsg79
Nsbsbsbsg77
g80
(g84
S'\x00\x00\x00\x00\x00\x00\x00\x00'
p3212
tp3213
Rp3214
sg78
g1416
sg79
g0
(g1
g2
Ntp3215
Rp3216
(dp3217
g6
I1
sg7
Nsg77
Nsg78
Nsg79
Nsbsbsbsbsg77
g80
(g131
S'\x00\x00\x00\x00\x00\x00\x00\x00'
p3218
tp3219
Rp3220
sg78
g151
sg79
g0
(g1
g2
Ntp3221
Rp3222
(dp3223
g6
I1
sg7
Nsg77
Nsg78
Nsg79
Nsbsbsg77
g80
(g84
S'\x00\x00\x00\x00\x00\x00\x00\x00'
p3224
tp3225
Rp3226
sg78
g158
sg79
g0
(g1
g2
Ntp3227
Rp3228
(dp3229
g6
I1
sg7
Nsg77
Nsg78
Nsg79
Nsbsbsg77
g80
(g131
S'\x00\x00\x00\x00\x00\x00\x00\x00'
p3230
tp3231
Rp3232
sg78
g357
sg79
g0
(g1
g2
Ntp3233
Rp3234
(dp3235
g6
I1
sg7
Nsg77
Nsg78
Nsg79
Nsbsbsbsg77
g80
(g131
S'333333:@'
p3236
tp3237
Rp3238
sg78
S'BMI'
p3239
sg79
g0
(g1
g2
Ntp3240
Rp3241
(dp3242
g6
Nsg7
g0
(g1
g2
Ntp3243
Rp3244
(dp3245
g6
Nsg7
g0
(g1
g2
Ntp3246
Rp3247
(dp3248
g6
Nsg7
g0
(g1
g2
Ntp3249
Rp3250
(dp3251
g6
Nsg7
g0
(g1
g2
Ntp3252
Rp3253
(dp3254
g6
Nsg7
g0
(g1
g2
Ntp3255
Rp3256
(dp3257
g6
Nsg7
g0
(g1
g2
Ntp3258
Rp3259
(dp3260
g6
Nsg7
g0
(g1
g2
Ntp3261
Rp3262
(dp3263
g6
Nsg7
g0
(g1
g2
Ntp3264
Rp3265
(dp3266
g6
Nsg7
g0
(g1
g2
Ntp3267
Rp3268
(dp3269
g6
Nsg7
g0
(g1
g2
Ntp3270
Rp3271
(dp3272
g6
Nsg7
g0
(g1
g2
Ntp3273
Rp3274
(dp3275
g6
Nsg7
g0
(g1
g2
Ntp3276
Rp3277
(dp3278
g6
Nsg7
g0
(g1
g2
Ntp3279
Rp3280
(dp3281
g6
Nsg7
g0
(g1
g2
Ntp3282
Rp3283
(dp3284
g6
Nsg7
g0
(g1
g2
Ntp3285
Rp3286
(dp3287
g6
Nsg7
g0
(g1
g2
Ntp3288
Rp3289
(dp3290
g6
Nsg7
g0
(g1
g2
Ntp3291
Rp3292
(dp3293
g6
Nsg7
g0
(g1
g2
Ntp3294
Rp3295
(dp3296
g6
Nsg7
g0
(g1
g2
Ntp3297
Rp3298
(dp3299
g6
Nsg7
g0
(g1
g2
Ntp3300
Rp3301
(dp3302
g6
Nsg7
g0
(g1
g2
Ntp3303
Rp3304
(dp3305
g6
I1
sg7
Nsg77
Nsg78
Nsg79
Nsbsg77
g80
(g84
S'\x00\x00\x00\x00\x00\x00\x00\x00'
p3306
tp3307
Rp3308
sg78
g343
sg79
g0
(g1
g2
Ntp3309
Rp3310
(dp3311
g6
I1
sg7
Nsg77
Nsg78
Nsg79
Nsbsbsg77
g80
(g84
S'\x00\x00\x00\x00\x00\x00\x00\x00'
p3312
tp3313
Rp3314
sg78
g350
sg79
g0
(g1
g2
Ntp3315
Rp3316
(dp3317
g6
I1
sg7
Nsg77
Nsg78
Nsg79
Nsbsbsg77
g80
(g84
S'\x00\x00\x00\x00\x00\x00\x00\x00'
p3318
tp3319
Rp3320
sg78
g90
sg79
g0
(g1
g2
Ntp3321
Rp3322
(dp3323
g6
I1
sg7
Nsg77
Nsg78
Nsg79
Nsbsbsg77
g80
(g84
S'\x00\x00\x00\x00\x00\x00\x00\x00'
p3324
tp3325
Rp3326
sg78
g544
sg79
g0
(g1
g2
Ntp3327
Rp3328
(dp3329
g6
I1
sg7
Nsg77
Nsg78
Nsg79
Nsbsbsg77
g80
(g84
S'\x00\x00\x00\x00\x00\x00\x00\x00'
p3330
tp3331
Rp3332
sg78
g97
sg79
g0
(g1
g2
Ntp3333
Rp3334
(dp3335
g6
I1
sg7
Nsg77
Nsg78
Nsg79
Nsbsbsg77
g80
(g84
S'\x00\x00\x00\x00\x00\x00\x00\x00'
p3336
tp3337
Rp3338
sg78
g104
sg79
g0
(g1
g2
Ntp3339
Rp3340
(dp3341
g6
I1
sg7
Nsg77
Nsg78
Nsg79
Nsbsbsg77
g80
(g84
S'\x00\x00\x00\x00\x00\x00\x00\x00'
p3342
tp3343
Rp3344
sg78
g111
sg79
g0
(g1
g2
Ntp3345
Rp3346
(dp3347
g6
I1
sg7
Nsg77
Nsg78
Nsg79
Nsbsbsg77
g80
(g84
S'\x00\x00\x00\x00\x00\x00\x00\x00'
p3348
tp3349
Rp3350
sg78
g118
sg79
g0
(g1
g2
Ntp3351
Rp3352
(dp3353
g6
I1
sg7
Nsg77
Nsg78
Nsg79
Nsbsbsg77
g80
(g84
S'\x00\x00\x00\x00\x00\x00\x00\x00'
p3354
tp3355
Rp3356
sg78
g125
sg79
g0
(g1
g2
Ntp3357
Rp3358
(dp3359
g6
I1
sg7
Nsg77
Nsg78
Nsg79
Nsbsbsg77
g80
(g84
S'\x00\x00\x00\x00\x00\x00\x00\x00'
p3360
tp3361
Rp3362
sg78
g1395
sg79
g0
(g1
g2
Ntp3363
Rp3364
(dp3365
g6
I1
sg7
Nsg77
Nsg78
Nsg79
Nsbsbsg77
g80
(g131
S'\x00\x00\x00\x00\x00\x00\xf0?'
p3366
tp3367
Rp3368
sg78
g137
sg79
g0
(g1
g2
Ntp3369
Rp3370
(dp3371
g6
I1
sg7
Nsg77
Nsg78
Nsg79
Nsbsbsg77
g80
(g84
S'\x00\x00\x00\x00\x00\x00\x00\x00'
p3372
tp3373
Rp3374
sg78
g144
sg79
g0
(g1
g2
Ntp3375
Rp3376
(dp3377
g6
I1
sg7
Nsg77
Nsg78
Nsg79
Nsbsbsg77
g80
(g84
S'\x10\x00\x00\x00\x00\x00\x00\x00'
p3378
tp3379
Rp3380
sg78
g1409
sg79
g0
(g1
g2
Ntp3381
Rp3382
(dp3383
g6
I1
sg7
Nsg77
Nsg78
Nsg79
Nsbsbsg77
g80
(g131
S'\x00\x00\x00\x00\x00\x00\xf0?'
p3384
tp3385
Rp3386
sg78
g357
sg79
g0
(g1
g2
Ntp3387
Rp3388
(dp3389
g6
I1
sg7
Nsg77
Nsg78
Nsg79
Nsbsbsg77
g80
(g131
S'\x00\x00\x00\x00\x00\xc0E@'
p3390
tp3391
Rp3392
sg78
g165
sg79
g0
(g1
g2
Ntp3393
Rp3394
(dp3395
g6
I1
sg7
Nsg77
Nsg78
Nsg79
Nsbsbsg77
g80
(g131
S'\x00\x00\x00\x00\x00\x00\x00\x00'
p3396
tp3397
Rp3398
sg78
g1423
sg79
g0
(g1
g2
Ntp3399
Rp3400
(dp3401
g6
I1
sg7
Nsg77
Nsg78
Nsg79
Nsbsbsg77
g80
(g84
S'\xcffs\x01\x00\x00\x00\x00'
p3402
tp3403
Rp3404
sg78
g551
sg79
g0
(g1
g2
Ntp3405
Rp3406
(dp3407
g6
Nsg7
g0
(g1
g2
Ntp3408
Rp3409
(dp3410
g6
Nsg7
g0
(g1
g2
Ntp3411
Rp3412
(dp3413
g6
Nsg7
g0
(g1
g2
Ntp3414
Rp3415
(dp3416
g6
Nsg7
g0
(g1
g2
Ntp3417
Rp3418
(dp3419
g6
Nsg7
g0
(g1
g2
Ntp3420
Rp3421
(dp3422
g6
Nsg7
g0
(g1
g2
Ntp3423
Rp3424
(dp3425
g6
Nsg7
g0
(g1
g2
Ntp3426
Rp3427
(dp3428
g6
Nsg7
g0
(g1
g2
Ntp3429
Rp3430
(dp3431
g6
Nsg7
g0
(g1
g2
Ntp3432
Rp3433
(dp3434
g6
Nsg7
g0
(g1
g2
Ntp3435
Rp3436
(dp3437
g6
Nsg7
g0
(g1
g2
Ntp3438
Rp3439
(dp3440
g6
Nsg7
g0
(g1
g2
Ntp3441
Rp3442
(dp3443
g6
Nsg7
g0
(g1
g2
Ntp3444
Rp3445
(dp3446
g6
Nsg7
g0
(g1
g2
Ntp3447
Rp3448
(dp3449
g6
Nsg7
g0
(g1
g2
Ntp3450
Rp3451
(dp3452
g6
Nsg7
g0
(g1
g2
Ntp3453
Rp3454
(dp3455
g6
I0
sg7
Nsg77
Nsg78
Nsg79
Nsbsg77
g80
(g84
S'\x00\x00\x00\x00\x00\x00\x00\x00'
p3456
tp3457
Rp3458
sg78
g343
sg79
g0
(g1
g2
Ntp3459
Rp3460
(dp3461
g6
I1
sg7
Nsg77
Nsg78
Nsg79
Nsbsbsg77
g80
(g84
S'\x00\x00\x00\x00\x00\x00\x00\x00'
p3462
tp3463
Rp3464
sg78
g350
sg79
g0
(g1
g2
Ntp3465
Rp3466
(dp3467
g6
I1
sg7
Nsg77
Nsg78
Nsg79
Nsbsbsg77
g80
(g84
S'\x00\x00\x00\x00\x00\x00\x00\x00'
p3468
tp3469
Rp3470
sg78
g90
sg79
g0
(g1
g2
Ntp3471
Rp3472
(dp3473
g6
I1
sg7
Nsg77
Nsg78
Nsg79
Nsbsbsg77
g80
(g84
S'\x00\x00\x00\x00\x00\x00\x00\x00'
p3474
tp3475
Rp3476
sg78
g544
sg79
g0
(g1
g2
Ntp3477
Rp3478
(dp3479
g6
I1
sg7
Nsg77
Nsg78
Nsg79
Nsbsbsg77
g80
(g84
S'\x00\x00\x00\x00\x00\x00\x00\x00'
p3480
tp3481
Rp3482
sg78
g97
sg79
g0
(g1
g2
Ntp3483
Rp3484
(dp3485
g6
I1
sg7
Nsg77
Nsg78
Nsg79
Nsbsbsg77
g80
(g84
S'\x00\x00\x00\x00\x00\x00\x00\x00'
p3486
tp3487
Rp3488
sg78
g104
sg79
g0
(g1
g2
Ntp3489
Rp3490
(dp3491
g6
I1
sg7
Nsg77
Nsg78
Nsg79
Nsbsbsg77
g80
(g84
S'\x00\x00\x00\x00\x00\x00\x00\x00'
p3492
tp3493
Rp3494
sg78
g111
sg79
g0
(g1
g2
Ntp3495
Rp3496
(dp3497
g6
I1
sg7
Nsg77
Nsg78
Nsg79
Nsbsbsg77
g80
(g84
S'\x00\x00\x00\x00\x00\x00\x00\x00'
p3498
tp3499
Rp3500
sg78
g118
sg79
g0
(g1
g2
Ntp3501
Rp3502
(dp3503
g6
I1
sg7
Nsg77
Nsg78
Nsg79
Nsbsbsg77
g80
(g84
S'\x00\x00\x00\x00\x00\x00\x00\x00'
p3504
tp3505
Rp3506
sg78
g125
sg79
g0
(g1
g2
Ntp3507
Rp3508
(dp3509
g6
I1
sg7
Nsg77
Nsg78
Nsg79
Nsbsbsg77
g80
(g84
S'\x00\x00\x00\x00\x00\x00\x00\x00'
p3510
tp3511
Rp3512
sg78
g1395
sg79
g0
(g1
g2
Ntp3513
Rp3514
(dp3515
g6
I1
sg7
Nsg77
Nsg78
Nsg79
Nsbsbsg77
g80
(g131
S'\x00\x00\x00\x00\x00\x00\xf0?'
p3516
tp3517
Rp3518
sg78
g137
sg79
g0
(g1
g2
Ntp3519
Rp3520
(dp3521
g6
I1
sg7
Nsg77
Nsg78
Nsg79
Nsbsbsg77
g80
(g84
S'\x00\x00\x00\x00\x00\x00\x00\x00'
p3522
tp3523
Rp3524
sg78
g144
sg79
g0
(g1
g2
Ntp3525
Rp3526
(dp3527
g6
I1
sg7
Nsg77
Nsg78
Nsg79
Nsbsbsg77
g80
(g84
S'\x10\x00\x00\x00\x00\x00\x00\x00'
p3528
tp3529
Rp3530
sg78
g1409
sg79
g0
(g1
g2
Ntp3531
Rp3532
(dp3533
g6
I1
sg7
Nsg77
Nsg78
Nsg79
Nsbsbsg77
g80
(g131
S'\x00\x00\x00\x00\x00\x00\xf0?'
p3534
tp3535
Rp3536
sg78
g357
sg79
g0
(g1
g2
Ntp3537
Rp3538
(dp3539
g6
I1
sg7
Nsg77
Nsg78
Nsg79
Nsbsbsg77
g80
(g131
S'\x00\x00\x00\x00\x00\xc0E@'
p3540
tp3541
Rp3542
sg78
g165
sg79
g0
(g1
g2
Ntp3543
Rp3544
(dp3545
g6
I1
sg7
Nsg77
Nsg78
Nsg79
Nsbsbsg77
g80
(g131
S'\x00\x00\x00\x00\x00\x00\x00\x00'
p3546
tp3547
Rp3548
sg78
g1423
sg79
g0
(g1
g2
Ntp3549
Rp3550
(dp3551
g6
I1
sg7
Nsg77
Nsg78
Nsg79
Nsbsbsbsg77
g80
(g84
S'\x01\x00\x00\x00\x00\x00\x00\x00'
p3552
tp3553
Rp3554
sg78
g158
sg79
g0
(g1
g2
Ntp3555
Rp3556
(dp3557
g6
Nsg7
g0
(g1
g2
Ntp3558
Rp3559
(dp3560
g6
Nsg7
g0
(g1
g2
Ntp3561
Rp3562
(dp3563
g6
Nsg7
g0
(g1
g2
Ntp3564
Rp3565
(dp3566
g6
Nsg7
g0
(g1
g2
Ntp3567
Rp3568
(dp3569
g6
Nsg7
g0
(g1
g2
Ntp3570
Rp3571
(dp3572
g6
Nsg7
g0
(g1
g2
Ntp3573
Rp3574
(dp3575
g6
Nsg7
g0
(g1
g2
Ntp3576
Rp3577
(dp3578
g6
Nsg7
g0
(g1
g2
Ntp3579
Rp3580
(dp3581
g6
Nsg7
g0
(g1
g2
Ntp3582
Rp3583
(dp3584
g6
Nsg7
g0
(g1
g2
Ntp3585
Rp3586
(dp3587
g6
Nsg7
g0
(g1
g2
Ntp3588
Rp3589
(dp3590
g6
Nsg7
g0
(g1
g2
Ntp3591
Rp3592
(dp3593
g6
Nsg7
g0
(g1
g2
Ntp3594
Rp3595
(dp3596
g6
Nsg7
g0
(g1
g2
Ntp3597
Rp3598
(dp3599
g6
Nsg7
g0
(g1
g2
Ntp3600
Rp3601
(dp3602
g6
Nsg7
g0
(g1
g2
Ntp3603
Rp3604
(dp3605
g6
Nsg7
g0
(g1
g2
Ntp3606
Rp3607
(dp3608
g6
I0
sg7
Nsg77
Nsg78
Nsg79
Nsbsg77
g80
(g84
S'\x00\x00\x00\x00\x00\x00\x00\x00'
p3609
tp3610
Rp3611
sg78
g544
sg79
g0
(g1
g2
Ntp3612
Rp3613
(dp3614
g6
I1
sg7
Nsg77
Nsg78
Nsg79
Nsbsbsg77
g80
(g84
S'\x01\x00\x00\x00\x00\x00\x00\x00'
p3615
tp3616
Rp3617
sg78
g97
sg79
g0
(g1
g2
Ntp3618
Rp3619
(dp3620
g6
I1
sg7
Nsg77
Nsg78
Nsg79
Nsbsbsg77
g80
(g84
S'\x00\x00\x00\x00\x00\x00\x00\x00'
p3621
tp3622
Rp3623
sg78
g104
sg79
g0
(g1
g2
Ntp3624
Rp3625
(dp3626
g6
I1
sg7
Nsg77
Nsg78
Nsg79
Nsbsbsg77
g80
(g84
S'\x00\x00\x00\x00\x00\x00\x00\x00'
p3627
tp3628
Rp3629
sg78
g111
sg79
g0
(g1
g2
Ntp3630
Rp3631
(dp3632
g6
I1
sg7
Nsg77
Nsg78
Nsg79
Nsbsbsg77
g80
(g84
S'\x00\x00\x00\x00\x00\x00\x00\x00'
p3633
tp3634
Rp3635
sg78
g118
sg79
g0
(g1
g2
Ntp3636
Rp3637
(dp3638
g6
I1
sg7
Nsg77
Nsg78
Nsg79
Nsbsbsg77
g80
(g84
S'\x00\x00\x00\x00\x00\x00\x00\x00'
p3639
tp3640
Rp3641
sg78
g125
sg79
g0
(g1
g2
Ntp3642
Rp3643
(dp3644
g6
I1
sg7
Nsg77
Nsg78
Nsg79
Nsbsbsg77
g80
(g84
S'\x00\x00\x00\x00\x00\x00\x00\x00'
p3645
tp3646
Rp3647
sg78
g1395
sg79
g0
(g1
g2
Ntp3648
Rp3649
(dp3650
g6
I1
sg7
Nsg77
Nsg78
Nsg79
Nsbsbsg77
g80
(g131
S'\x00\x00\x00\x00\x00\x00\xf0?'
p3651
tp3652
Rp3653
sg78
g137
sg79
g0
(g1
g2
Ntp3654
Rp3655
(dp3656
g6
I1
sg7
Nsg77
Nsg78
Nsg79
Nsbsbsg77
g80
(g84
S'\x00\x00\x00\x00\x00\x00\x00\x00'
p3657
tp3658
Rp3659
sg78
g144
sg79
g0
(g1
g2
Ntp3660
Rp3661
(dp3662
g6
I1
sg7
Nsg77
Nsg78
Nsg79
Nsbsbsg77
g80
(g131
S'\x00\x00\x00\x00\x00\x00\xe0?'
p3663
tp3664
Rp3665
sg78
g357
sg79
g0
(g1
g2
Ntp3666
Rp3667
(dp3668
g6
I1
sg7
Nsg77
Nsg78
Nsg79
Nsbsbsg77
g80
(g131
S'\x00\x00\x00\x00\x00\x00>@'
p3669
tp3670
Rp3671
sg78
g165
sg79
g0
(g1
g2
Ntp3672
Rp3673
(dp3674
g6
I1
sg7
Nsg77
Nsg78
Nsg79
Nsbsbsg77
g80
(g84
S'<\xa5S\xff\xff\xff\xff\xff'
p3675
tp3676
Rp3677
sg78
g551
sg79
g0
(g1
g2
Ntp3678
Rp3679
(dp3680
g6
Nsg7
g0
(g1
g2
Ntp3681
Rp3682
(dp3683
g6
Nsg7
g0
(g1
g2
Ntp3684
Rp3685
(dp3686
g6
Nsg7
g0
(g1
g2
Ntp3687
Rp3688
(dp3689
g6
Nsg7
g0
(g1
g2
Ntp3690
Rp3691
(dp3692
g6
Nsg7
g0
(g1
g2
Ntp3693
Rp3694
(dp3695
g6
Nsg7
g0
(g1
g2
Ntp3696
Rp3697
(dp3698
g6
Nsg7
g0
(g1
g2
Ntp3699
Rp3700
(dp3701
g6
Nsg7
g0
(g1
g2
Ntp3702
Rp3703
(dp3704
g6
Nsg7
g0
(g1
g2
Ntp3705
Rp3706
(dp3707
g6
Nsg7
g0
(g1
g2
Ntp3708
Rp3709
(dp3710
g6
Nsg7
g0
(g1
g2
Ntp3711
Rp3712
(dp3713
g6
I0
sg7
Nsg77
Nsg78
Nsg79
Nsbsg77
g80
(g84
S'\x00\x00\x00\x00\x00\x00\x00\x00'
p3714
tp3715
Rp3716
sg78
g544
sg79
g0
(g1
g2
Ntp3717
Rp3718
(dp3719
g6
I1
sg7
Nsg77
Nsg78
Nsg79
Nsbsbsg77
g80
(g84
S'\x01\x00\x00\x00\x00\x00\x00\x00'
p3720
tp3721
Rp3722
sg78
g97
sg79
g0
(g1
g2
Ntp3723
Rp3724
(dp3725
g6
I1
sg7
Nsg77
Nsg78
Nsg79
Nsbsbsg77
g80
(g84
S'\x00\x00\x00\x00\x00\x00\x00\x00'
p3726
tp3727
Rp3728
sg78
g104
sg79
g0
(g1
g2
Ntp3729
Rp3730
(dp3731
g6
I1
sg7
Nsg77
Nsg78
Nsg79
Nsbsbsg77
g80
(g84
S'\x00\x00\x00\x00\x00\x00\x00\x00'
p3732
tp3733
Rp3734
sg78
g111
sg79
g0
(g1
g2
Ntp3735
Rp3736
(dp3737
g6
I1
sg7
Nsg77
Nsg78
Nsg79
Nsbsbsg77
g80
(g84
S'\x00\x00\x00\x00\x00\x00\x00\x00'
p3738
tp3739
Rp3740
sg78
g118
sg79
g0
(g1
g2
Ntp3741
Rp3742
(dp3743
g6
I1
sg7
Nsg77
Nsg78
Nsg79
Nsbsbsg77
g80
(g84
S'\x00\x00\x00\x00\x00\x00\x00\x00'
p3744
tp3745
Rp3746
sg78
g125
sg79
g0
(g1
g2
Ntp3747
Rp3748
(dp3749
g6
I1
sg7
Nsg77
Nsg78
Nsg79
Nsbsbsg77
g80
(g84
S'\x00\x00\x00\x00\x00\x00\x00\x00'
p3750
tp3751
Rp3752
sg78
g1395
sg79
g0
(g1
g2
Ntp3753
Rp3754
(dp3755
g6
I1
sg7
Nsg77
Nsg78
Nsg79
Nsbsbsg77
g80
(g131
S'\x00\x00\x00\x00\x00\x00\xf0?'
p3756
tp3757
Rp3758
sg78
g137
sg79
g0
(g1
g2
Ntp3759
Rp3760
(dp3761
g6
I1
sg7
Nsg77
Nsg78
Nsg79
Nsbsbsg77
g80
(g84
S'\x00\x00\x00\x00\x00\x00\x00\x00'
p3762
tp3763
Rp3764
sg78
g144
sg79
g0
(g1
g2
Ntp3765
Rp3766
(dp3767
g6
I1
sg7
Nsg77
Nsg78
Nsg79
Nsbsbsg77
g80
(g131
S'\x00\x00\x00\x00\x00\x00\xe0?'
p3768
tp3769
Rp3770
sg78
g357
sg79
g0
(g1
g2
Ntp3771
Rp3772
(dp3773
g6
I1
sg7
Nsg77
Nsg78
Nsg79
Nsbsbsg77
g80
(g131
S'\x00\x00\x00\x00\x00\x00>@'
p3774
tp3775
Rp3776
sg78
g165
sg79
g0
(g1
g2
Ntp3777
Rp3778
(dp3779
g6
I1
sg7
Nsg77
Nsg78
Nsg79
Nsbsbsbsg77
g80
(g131
S'\x00\x00\x00\x00\x00\x004@'
p3780
tp3781
Rp3782
sg78
g1423
sg79
g0
(g1
g2
Ntp3783
Rp3784
(dp3785
g6
Nsg7
g0
(g1
g2
Ntp3786
Rp3787
(dp3788
g6
Nsg7
g0
(g1
g2
Ntp3789
Rp3790
(dp3791
g6
Nsg7
g0
(g1
g2
Ntp3792
Rp3793
(dp3794
g6
Nsg7
g0
(g1
g2
Ntp3795
Rp3796
(dp3797
g6
Nsg7
g0
(g1
g2
Ntp3798
Rp3799
(dp3800
g6
Nsg7
g0
(g1
g2
Ntp3801
Rp3802
(dp3803
g6
Nsg7
g0
(g1
g2
Ntp3804
Rp3805
(dp3806
g6
Nsg7
g0
(g1
g2
Ntp3807
Rp3808
(dp3809
g6
Nsg7
g0
(g1
g2
Ntp3810
Rp3811
(dp3812
g6
Nsg7
g0
(g1
g2
Ntp3813
Rp3814
(dp3815
g6
Nsg7
g0
(g1
g2
Ntp3816
Rp3817
(dp3818
g6
Nsg7
g0
(g1
g2
Ntp3819
Rp3820
(dp3821
g6
I0
sg7
Nsg77
Nsg78
Nsg79
Nsbsg77
g80
(g84
S'\x00\x00\x00\x00\x00\x00\x00\x00'
p3822
tp3823
Rp3824
sg78
g544
sg79
g0
(g1
g2
Ntp3825
Rp3826
(dp3827
g6
I1
sg7
Nsg77
Nsg78
Nsg79
Nsbsbsg77
g80
(g84
S'\x00\x00\x00\x00\x00\x00\x00\x00'
p3828
tp3829
Rp3830
sg78
g97
sg79
g0
(g1
g2
Ntp3831
Rp3832
(dp3833
g6
I1
sg7
Nsg77
Nsg78
Nsg79
Nsbsbsg77
g80
(g84
S'\x00\x00\x00\x00\x00\x00\x00\x00'
p3834
tp3835
Rp3836
sg78
g104
sg79
g0
(g1
g2
Ntp3837
Rp3838
(dp3839
g6
I1
sg7
Nsg77
Nsg78
Nsg79
Nsbsbsg77
g80
(g84
S'\x00\x00\x00\x00\x00\x00\x00\x00'
p3840
tp3841
Rp3842
sg78
g111
sg79
g0
(g1
g2
Ntp3843
Rp3844
(dp3845
g6
I1
sg7
Nsg77
Nsg78
Nsg79
Nsbsbsg77
g80
(g84
S'\x00\x00\x00\x00\x00\x00\x00\x00'
p3846
tp3847
Rp3848
sg78
g118
sg79
g0
(g1
g2
Ntp3849
Rp3850
(dp3851
g6
I1
sg7
Nsg77
Nsg78
Nsg79
Nsbsbsg77
g80
(g84
S'\x00\x00\x00\x00\x00\x00\x00\x00'
p3852
tp3853
Rp3854
sg78
g125
sg79
g0
(g1
g2
Ntp3855
Rp3856
(dp3857
g6
I1
sg7
Nsg77
Nsg78
Nsg79
Nsbsbsg77
g80
(g84
S'\x00\x00\x00\x00\x00\x00\x00\x00'
p3858
tp3859
Rp3860
sg78
g1395
sg79
g0
(g1
g2
Ntp3861
Rp3862
(dp3863
g6
I1
sg7
Nsg77
Nsg78
Nsg79
Nsbsbsg77
g80
(g131
S'\x00\x00\x00\x00\x00\x00\xf0?'
p3864
tp3865
Rp3866
sg78
g137
sg79
g0
(g1
g2
Ntp3867
Rp3868
(dp3869
g6
I1
sg7
Nsg77
Nsg78
Nsg79
Nsbsbsg77
g80
(g84
S'\x00\x00\x00\x00\x00\x00\x00\x00'
p3870
tp3871
Rp3872
sg78
g144
sg79
g0
(g1
g2
Ntp3873
Rp3874
(dp3875
g6
I1
sg7
Nsg77
Nsg78
Nsg79
Nsbsbsg77
g80
(g131
S'\x00\x00\x00\x00\x00\x00\xe0?'
p3876
tp3877
Rp3878
sg78
g357
sg79
g0
(g1
g2
Ntp3879
Rp3880
(dp3881
g6
I1
sg7
Nsg77
Nsg78
Nsg79
Nsbsbsg77
g80
(g84
S'\xfd_B\xfa\xff\xff\xff\xff'
p3882
tp3883
Rp3884
sg78
g551
sg79
g0
(g1
g2
Ntp3885
Rp3886
(dp3887
g6
Nsg7
g0
(g1
g2
Ntp3888
Rp3889
(dp3890
g6
Nsg7
g0
(g1
g2
Ntp3891
Rp3892
(dp3893
g6
Nsg7
g0
(g1
g2
Ntp3894
Rp3895
(dp3896
g6
Nsg7
g0
(g1
g2
Ntp3897
Rp3898
(dp3899
g6
Nsg7
g0
(g1
g2
Ntp3900
Rp3901
(dp3902
g6
Nsg7
g0
(g1
g2
Ntp3903
Rp3904
(dp3905
g6
Nsg7
g0
(g1
g2
Ntp3906
Rp3907
(dp3908
g6
Nsg7
g0
(g1
g2
Ntp3909
Rp3910
(dp3911
g6
Nsg7
g0
(g1
g2
Ntp3912
Rp3913
(dp3914
g6
Nsg7
g0
(g1
g2
Ntp3915
Rp3916
(dp3917
g6
I0
sg7
Nsg77
Nsg78
Nsg79
Nsbsg77
g80
(g84
S'\x00\x00\x00\x00\x00\x00\x00\x00'
p3918
tp3919
Rp3920
sg78
g544
sg79
g0
(g1
g2
Ntp3921
Rp3922
(dp3923
g6
I1
sg7
Nsg77
Nsg78
Nsg79
Nsbsbsg77
g80
(g84
S'\x00\x00\x00\x00\x00\x00\x00\x00'
p3924
tp3925
Rp3926
sg78
g97
sg79
g0
(g1
g2
Ntp3927
Rp3928
(dp3929
g6
I1
sg7
Nsg77
Nsg78
Nsg79
Nsbsbsg77
g80
(g84
S'\x00\x00\x00\x00\x00\x00\x00\x00'
p3930
tp3931
Rp3932
sg78
g104
sg79
g0
(g1
g2
Ntp3933
Rp3934
(dp3935
g6
I1
sg7
Nsg77
Nsg78
Nsg79
Nsbsbsg77
g80
(g84
S'\x00\x00\x00\x00\x00\x00\x00\x00'
p3936
tp3937
Rp3938
sg78
g111
sg79
g0
(g1
g2
Ntp3939
Rp3940
(dp3941
g6
I1
sg7
Nsg77
Nsg78
Nsg79
Nsbsbsg77
g80
(g84
S'\x00\x00\x00\x00\x00\x00\x00\x00'
p3942
tp3943
Rp3944
sg78
g118
sg79
g0
(g1
g2
Ntp3945
Rp3946
(dp3947
g6
I1
sg7
Nsg77
Nsg78
Nsg79
Nsbsbsg77
g80
(g84
S'\x00\x00\x00\x00\x00\x00\x00\x00'
p3948
tp3949
Rp3950
sg78
g125
sg79
g0
(g1
g2
Ntp3951
Rp3952
(dp3953
g6
I1
sg7
Nsg77
Nsg78
Nsg79
Nsbsbsg77
g80
(g84
S'\x00\x00\x00\x00\x00\x00\x00\x00'
p3954
tp3955
Rp3956
sg78
g1395
sg79
g0
(g1
g2
Ntp3957
Rp3958
(dp3959
g6
I1
sg7
Nsg77
Nsg78
Nsg79
Nsbsbsg77
g80
(g131
S'\x00\x00\x00\x00\x00\x00\xf0?'
p3960
tp3961
Rp3962
sg78
g137
sg79
g0
(g1
g2
Ntp3963
Rp3964
(dp3965
g6
I1
sg7
Nsg77
Nsg78
Nsg79
Nsbsbsg77
g80
(g84
S'\x00\x00\x00\x00\x00\x00\x00\x00'
p3966
tp3967
Rp3968
sg78
g144
sg79
g0
(g1
g2
Ntp3969
Rp3970
(dp3971
g6
I1
sg7
Nsg77
Nsg78
Nsg79
Nsbsbsg77
g80
(g131
S'\x00\x00\x00\x00\x00\x00\x14@'
p3972
tp3973
Rp3974
sg78
g357
sg79
g0
(g1
g2
Ntp3975
Rp3976
(dp3977
g6
Nsg7
g0
(g1
g2
Ntp3978
Rp3979
(dp3980
g6
Nsg7
g0
(g1
g2
Ntp3981
Rp3982
(dp3983
g6
Nsg7
g0
(g1
g2
Ntp3984
Rp3985
(dp3986
g6
Nsg7
g0
(g1
g2
Ntp3987
Rp3988
(dp3989
g6
Nsg7
g0
(g1
g2
Ntp3990
Rp3991
(dp3992
g6
Nsg7
g0
(g1
g2
Ntp3993
Rp3994
(dp3995
g6
Nsg7
g0
(g1
g2
Ntp3996
Rp3997
(dp3998
g6
Nsg7
g0
(g1
g2
Ntp3999
Rp4000
(dp4001
g6
Nsg7
g0
(g1
g2
Ntp4002
Rp4003
(dp4004
g6
I0
sg7
Nsg77
Nsg78
Nsg79
Nsbsg77
g80
(g84
S'\x00\x00\x00\x00\x00\x00\x00\x00'
p4005
tp4006
Rp4007
sg78
g544
sg79
g0
(g1
g2
Ntp4008
Rp4009
(dp4010
g6
I1
sg7
Nsg77
Nsg78
Nsg79
Nsbsbsg77
g80
(g84
S'\x00\x00\x00\x00\x00\x00\x00\x00'
p4011
tp4012
Rp4013
sg78
g97
sg79
g0
(g1
g2
Ntp4014
Rp4015
(dp4016
g6
I1
sg7
Nsg77
Nsg78
Nsg79
Nsbsbsg77
g80
(g84
S'\x00\x00\x00\x00\x00\x00\x00\x00'
p4017
tp4018
Rp4019
sg78
g104
sg79
g0
(g1
g2
Ntp4020
Rp4021
(dp4022
g6
I1
sg7
Nsg77
Nsg78
Nsg79
Nsbsbsg77
g80
(g84
S'\x00\x00\x00\x00\x00\x00\x00\x00'
p4023
tp4024
Rp4025
sg78
g111
sg79
g0
(g1
g2
Ntp4026
Rp4027
(dp4028
g6
I1
sg7
Nsg77
Nsg78
Nsg79
Nsbsbsg77
g80
(g84
S'\x00\x00\x00\x00\x00\x00\x00\x00'
p4029
tp4030
Rp4031
sg78
g118
sg79
g0
(g1
g2
Ntp4032
Rp4033
(dp4034
g6
I1
sg7
Nsg77
Nsg78
Nsg79
Nsbsbsg77
g80
(g84
S'\x00\x00\x00\x00\x00\x00\x00\x00'
p4035
tp4036
Rp4037
sg78
g125
sg79
g0
(g1
g2
Ntp4038
Rp4039
(dp4040
g6
I1
sg7
Nsg77
Nsg78
Nsg79
Nsbsbsg77
g80
(g84
S'\x00\x00\x00\x00\x00\x00\x00\x00'
p4041
tp4042
Rp4043
sg78
g1395
sg79
g0
(g1
g2
Ntp4044
Rp4045
(dp4046
g6
I1
sg7
Nsg77
Nsg78
Nsg79
Nsbsbsg77
g80
(g131
S'\x00\x00\x00\x00\x00\x00\xf0?'
p4047
tp4048
Rp4049
sg78
g137
sg79
g0
(g1
g2
Ntp4050
Rp4051
(dp4052
g6
I1
sg7
Nsg77
Nsg78
Nsg79
Nsbsbsg77
g80
(g84
S'\x00\x00\x00\x00\x00\x00\x00\x00'
p4053
tp4054
Rp4055
sg78
g144
sg79
g0
(g1
g2
Ntp4056
Rp4057
(dp4058
g6
I1
sg7
Nsg77
Nsg78
Nsg79
Nsbsbsbsbsg77
g80
(g131
S'\x00\x00\x00\x00\x00`S@'
p4059
tp4060
Rp4061
sg78
g165
sg79
g0
(g1
g2
Ntp4062
Rp4063
(dp4064
g6
Nsg7
g0
(g1
g2
Ntp4065
Rp4066
(dp4067
g6
Nsg7
g0
(g1
g2
Ntp4068
Rp4069
(dp4070
g6
Nsg7
g0
(g1
g2
Ntp4071
Rp4072
(dp4073
g6
Nsg7
g0
(g1
g2
Ntp4074
Rp4075
(dp4076
g6
Nsg7
g0
(g1
g2
Ntp4077
Rp4078
(dp4079
g6
Nsg7
g0
(g1
g2
Ntp4080
Rp4081
(dp4082
g6
Nsg7
g0
(g1
g2
Ntp4083
Rp4084
(dp4085
g6
Nsg7
g0
(g1
g2
Ntp4086
Rp4087
(dp4088
g6
Nsg7
g0
(g1
g2
Ntp4089
Rp4090
(dp4091
g6
Nsg7
g0
(g1
g2
Ntp4092
Rp4093
(dp4094
g6
Nsg7
g0
(g1
g2
Ntp4095
Rp4096
(dp4097
g6
I0
sg7
Nsg77
Nsg78
Nsg79
Nsbsg77
g80
(g84
S'\x00\x00\x00\x00\x00\x00\x00\x00'
p4098
tp4099
Rp4100
sg78
g544
sg79
g0
(g1
g2
Ntp4101
Rp4102
(dp4103
g6
I1
sg7
Nsg77
Nsg78
Nsg79
Nsbsbsg77
g80
(g84
S'\x00\x00\x00\x00\x00\x00\x00\x00'
p4104
tp4105
Rp4106
sg78
g97
sg79
g0
(g1
g2
Ntp4107
Rp4108
(dp4109
g6
I1
sg7
Nsg77
Nsg78
Nsg79
Nsbsbsg77
g80
(g84
S'\x00\x00\x00\x00\x00\x00\x00\x00'
p4110
tp4111
Rp4112
sg78
g104
sg79
g0
(g1
g2
Ntp4113
Rp4114
(dp4115
g6
I1
sg7
Nsg77
Nsg78
Nsg79
Nsbsbsg77
g80
(g84
S'\x00\x00\x00\x00\x00\x00\x00\x00'
p4116
tp4117
Rp4118
sg78
g111
sg79
g0
(g1
g2
Ntp4119
Rp4120
(dp4121
g6
I1
sg7
Nsg77
Nsg78
Nsg79
Nsbsbsg77
g80
(g131
S'\x00\x00\x00\x00\x00\x00\xf0?'
p4122
tp4123
Rp4124
sg78
g137
sg79
g0
(g1
g2
Ntp4125
Rp4126
(dp4127
g6
I1
sg7
Nsg77
Nsg78
Nsg79
Nsbsbsg77
g80
(g84
S'\x00\x00\x00\x00\x00\x00\x00\x00'
p4128
tp4129
Rp4130
sg78
g144
sg79
g0
(g1
g2
Ntp4131
Rp4132
(dp4133
g6
I1
sg7
Nsg77
Nsg78
Nsg79
Nsbsbsg77
g80
(g84
S'\x01\x00\x00\x00\x00\x00\x00\x00'
p4134
tp4135
Rp4136
sg78
g1395
sg79
g0
(g1
g2
Ntp4137
Rp4138
(dp4139
g6
Nsg7
g0
(g1
g2
Ntp4140
Rp4141
(dp4142
g6
Nsg7
g0
(g1
g2
Ntp4143
Rp4144
(dp4145
g6
Nsg7
g0
(g1
g2
Ntp4146
Rp4147
(dp4148
g6
Nsg7
g0
(g1
g2
Ntp4149
Rp4150
(dp4151
g6
Nsg7
g0
(g1
g2
Ntp4152
Rp4153
(dp4154
g6
Nsg7
g0
(g1
g2
Ntp4155
Rp4156
(dp4157
g6
I0
sg7
Nsg77
Nsg78
Nsg79
Nsbsg77
g80
(g84
S'\x00\x00\x00\x00\x00\x00\x00\x00'
p4158
tp4159
Rp4160
sg78
g544
sg79
g0
(g1
g2
Ntp4161
Rp4162
(dp4163
g6
I1
sg7
Nsg77
Nsg78
Nsg79
Nsbsbsg77
g80
(g84
S'\x00\x00\x00\x00\x00\x00\x00\x00'
p4164
tp4165
Rp4166
sg78
g97
sg79
g0
(g1
g2
Ntp4167
Rp4168
(dp4169
g6
I1
sg7
Nsg77
Nsg78
Nsg79
Nsbsbsg77
g80
(g84
S'\x00\x00\x00\x00\x00\x00\x00\x00'
p4170
tp4171
Rp4172
sg78
g104
sg79
g0
(g1
g2
Ntp4173
Rp4174
(dp4175
g6
I1
sg7
Nsg77
Nsg78
Nsg79
Nsbsbsg77
g80
(g84
S'\x00\x00\x00\x00\x00\x00\x00\x00'
p4176
tp4177
Rp4178
sg78
g111
sg79
g0
(g1
g2
Ntp4179
Rp4180
(dp4181
g6
I1
sg7
Nsg77
Nsg78
Nsg79
Nsbsbsg77
g80
(g131
S'\x00\x00\x00\x00\x00\x00\xf0?'
p4182
tp4183
Rp4184
sg78
g137
sg79
g0
(g1
g2
Ntp4185
Rp4186
(dp4187
g6
I1
sg7
Nsg77
Nsg78
Nsg79
Nsbsbsg77
g80
(g84
S'\x00\x00\x00\x00\x00\x00\x00\x00'
p4188
tp4189
Rp4190
sg78
g144
sg79
g0
(g1
g2
Ntp4191
Rp4192
(dp4193
g6
I1
sg7
Nsg77
Nsg78
Nsg79
Nsbsbsbsg77
g80
(g84
S'\x00\x00\x00\x00\x00\x00\x00\x00'
p4194
tp4195
Rp4196
sg78
g125
sg79
g0
(g1
g2
Ntp4197
Rp4198
(dp4199
g6
I1
sg7
Nsg77
Nsg78
Nsg79
Nsbsbsg77
g80
(g84
S'\x00\x00\x00\x00\x00\x00\x00\x00'
p4200
tp4201
Rp4202
sg78
g118
sg79
g0
(g1
g2
Ntp4203
Rp4204
(dp4205
g6
I1
sg7
Nsg77
Nsg78
Nsg79
Nsbsbsg77
g80
(g131
S'\x00\x00\x00\x00\x00\x00\x00\x00'
p4206
tp4207
Rp4208
sg78
g357
sg79
g0
(g1
g2
Ntp4209
Rp4210
(dp4211
g6
I1
sg7
Nsg77
Nsg78
Nsg79
Nsbsbsg77
g80
(g84
S'\x9bk)\xff\xff\xff\xff\xff'
p4212
tp4213
Rp4214
sg78
g551
sg79
g0
(g1
g2
Ntp4215
Rp4216
(dp4217
g6
Nsg7
g0
(g1
g2
Ntp4218
Rp4219
(dp4220
g6
Nsg7
g0
(g1
g2
Ntp4221
Rp4222
(dp4223
g6
Nsg7
g0
(g1
g2
Ntp4224
Rp4225
(dp4226
g6
Nsg7
g0
(g1
g2
Ntp4227
Rp4228
(dp4229
g6
Nsg7
g0
(g1
g2
Ntp4230
Rp4231
(dp4232
g6
Nsg7
g0
(g1
g2
Ntp4233
Rp4234
(dp4235
g6
Nsg7
g0
(g1
g2
Ntp4236
Rp4237
(dp4238
g6
Nsg7
g0
(g1
g2
Ntp4239
Rp4240
(dp4241
g6
Nsg7
g0
(g1
g2
Ntp4242
Rp4243
(dp4244
g6
Nsg7
g0
(g1
g2
Ntp4245
Rp4246
(dp4247
g6
I0
sg7
Nsg77
Nsg78
Nsg79
Nsbsg77
g80
(g84
S'\x00\x00\x00\x00\x00\x00\x00\x00'
p4248
tp4249
Rp4250
sg78
g544
sg79
g0
(g1
g2
Ntp4251
Rp4252
(dp4253
g6
I1
sg7
Nsg77
Nsg78
Nsg79
Nsbsbsg77
g80
(g84
S'\x00\x00\x00\x00\x00\x00\x00\x00'
p4254
tp4255
Rp4256
sg78
g97
sg79
g0
(g1
g2
Ntp4257
Rp4258
(dp4259
g6
I1
sg7
Nsg77
Nsg78
Nsg79
Nsbsbsg77
g80
(g84
S'\x00\x00\x00\x00\x00\x00\x00\x00'
p4260
tp4261
Rp4262
sg78
g104
sg79
g0
(g1
g2
Ntp4263
Rp4264
(dp4265
g6
I1
sg7
Nsg77
Nsg78
Nsg79
Nsbsbsg77
g80
(g84
S'\x00\x00\x00\x00\x00\x00\x00\x00'
p4266
tp4267
Rp4268
sg78
g111
sg79
g0
(g1
g2
Ntp4269
Rp4270
(dp4271
g6
I1
sg7
Nsg77
Nsg78
Nsg79
Nsbsbsg77
g80
(g84
S'\x00\x00\x00\x00\x00\x00\x00\x00'
p4272
tp4273
Rp4274
sg78
g125
sg79
g0
(g1
g2
Ntp4275
Rp4276
(dp4277
g6
I1
sg7
Nsg77
Nsg78
Nsg79
Nsbsbsg77
g80
(g84
S'\x00\x00\x00\x00\x00\x00\x00\x00'
p4278
tp4279
Rp4280
sg78
g1395
sg79
g0
(g1
g2
Ntp4281
Rp4282
(dp4283
g6
I1
sg7
Nsg77
Nsg78
Nsg79
Nsbsbsg77
g80
(g131
S'\x00\x00\x00\x00\x00\x00\xf0?'
p4284
tp4285
Rp4286
sg78
g137
sg79
g0
(g1
g2
Ntp4287
Rp4288
(dp4289
g6
I1
sg7
Nsg77
Nsg78
Nsg79
Nsbsbsg77
g80
(g84
S'\x00\x00\x00\x00\x00\x00\x00\x00'
p4290
tp4291
Rp4292
sg78
g144
sg79
g0
(g1
g2
Ntp4293
Rp4294
(dp4295
g6
I1
sg7
Nsg77
Nsg78
Nsg79
Nsbsbsg77
g80
(g131
S'\x00\x00\x00\x00\x00\x00\x00\x00'
p4296
tp4297
Rp4298
sg78
g357
sg79
g0
(g1
g2
Ntp4299
Rp4300
(dp4301
g6
I1
sg7
Nsg77
Nsg78
Nsg79
Nsbsbsg77
g80
(g84
S'\x01\x00\x00\x00\x00\x00\x00\x00'
p4302
tp4303
Rp4304
sg78
g118
sg79
g0
(g1
g2
Ntp4305
Rp4306
(dp4307
g6
Nsg7
g0
(g1
g2
Ntp4308
Rp4309
(dp4310
g6
Nsg7
g0
(g1
g2
Ntp4311
Rp4312
(dp4313
g6
Nsg7
g0
(g1
g2
Ntp4314
Rp4315
(dp4316
g6
Nsg7
g0
(g1
g2
Ntp4317
Rp4318
(dp4319
g6
Nsg7
g0
(g1
g2
Ntp4320
Rp4321
(dp4322
g6
Nsg7
g0
(g1
g2
Ntp4323
Rp4324
(dp4325
g6
Nsg7
g0
(g1
g2
Ntp4326
Rp4327
(dp4328
g6
Nsg7
g0
(g1
g2
Ntp4329
Rp4330
(dp4331
g6
Nsg7
g0
(g1
g2
Ntp4332
Rp4333
(dp4334
g6
I0
sg7
Nsg77
Nsg78
Nsg79
Nsbsg77
g80
(g84
S'\x00\x00\x00\x00\x00\x00\x00\x00'
p4335
tp4336
Rp4337
sg78
g544
sg79
g0
(g1
g2
Ntp4338
Rp4339
(dp4340
g6
I1
sg7
Nsg77
Nsg78
Nsg79
Nsbsbsg77
g80
(g84
S'\x00\x00\x00\x00\x00\x00\x00\x00'
p4341
tp4342
Rp4343
sg78
g97
sg79
g0
(g1
g2
Ntp4344
Rp4345
(dp4346
g6
I1
sg7
Nsg77
Nsg78
Nsg79
Nsbsbsg77
g80
(g84
S'\x00\x00\x00\x00\x00\x00\x00\x00'
p4347
tp4348
Rp4349
sg78
g104
sg79
g0
(g1
g2
Ntp4350
Rp4351
(dp4352
g6
I1
sg7
Nsg77
Nsg78
Nsg79
Nsbsbsg77
g80
(g84
S'\x00\x00\x00\x00\x00\x00\x00\x00'
p4353
tp4354
Rp4355
sg78
g111
sg79
g0
(g1
g2
Ntp4356
Rp4357
(dp4358
g6
I1
sg7
Nsg77
Nsg78
Nsg79
Nsbsbsg77
g80
(g131
S'\x00\x00\x00\x00\x00\x00\xf0?'
p4359
tp4360
Rp4361
sg78
g137
sg79
g0
(g1
g2
Ntp4362
Rp4363
(dp4364
g6
I1
sg7
Nsg77
Nsg78
Nsg79
Nsbsbsg77
g80
(g84
S'\x00\x00\x00\x00\x00\x00\x00\x00'
p4365
tp4366
Rp4367
sg78
g144
sg79
g0
(g1
g2
Ntp4368
Rp4369
(dp4370
g6
I1
sg7
Nsg77
Nsg78
Nsg79
Nsbsbsg77
g80
(g84
S'\x01\x00\x00\x00\x00\x00\x00\x00'
p4371
tp4372
Rp4373
sg78
g1395
sg79
g0
(g1
g2
Ntp4374
Rp4375
(dp4376
g6
Nsg7
g0
(g1
g2
Ntp4377
Rp4378
(dp4379
g6
Nsg7
g0
(g1
g2
Ntp4380
Rp4381
(dp4382
g6
Nsg7
g0
(g1
g2
Ntp4383
Rp4384
(dp4385
g6
Nsg7
g0
(g1
g2
Ntp4386
Rp4387
(dp4388
g6
Nsg7
g0
(g1
g2
Ntp4389
Rp4390
(dp4391
g6
Nsg7
g0
(g1
g2
Ntp4392
Rp4393
(dp4394
g6
I0
sg7
Nsg77
Nsg78
Nsg79
Nsbsg77
g80
(g84
S'\x00\x00\x00\x00\x00\x00\x00\x00'
p4395
tp4396
Rp4397
sg78
g544
sg79
g0
(g1
g2
Ntp4398
Rp4399
(dp4400
g6
I1
sg7
Nsg77
Nsg78
Nsg79
Nsbsbsg77
g80
(g84
S'\x00\x00\x00\x00\x00\x00\x00\x00'
p4401
tp4402
Rp4403
sg78
g97
sg79
g0
(g1
g2
Ntp4404
Rp4405
(dp4406
g6
I1
sg7
Nsg77
Nsg78
Nsg79
Nsbsbsg77
g80
(g84
S'\x00\x00\x00\x00\x00\x00\x00\x00'
p4407
tp4408
Rp4409
sg78
g104
sg79
g0
(g1
g2
Ntp4410
Rp4411
(dp4412
g6
I1
sg7
Nsg77
Nsg78
Nsg79
Nsbsbsg77
g80
(g84
S'\x00\x00\x00\x00\x00\x00\x00\x00'
p4413
tp4414
Rp4415
sg78
g111
sg79
g0
(g1
g2
Ntp4416
Rp4417
(dp4418
g6
I1
sg7
Nsg77
Nsg78
Nsg79
Nsbsbsg77
g80
(g131
S'\x00\x00\x00\x00\x00\x00\xf0?'
p4419
tp4420
Rp4421
sg78
g137
sg79
g0
(g1
g2
Ntp4422
Rp4423
(dp4424
g6
I1
sg7
Nsg77
Nsg78
Nsg79
Nsbsbsg77
g80
(g84
S'\x00\x00\x00\x00\x00\x00\x00\x00'
p4425
tp4426
Rp4427
sg78
g144
sg79
g0
(g1
g2
Ntp4428
Rp4429
(dp4430
g6
I1
sg7
Nsg77
Nsg78
Nsg79
Nsbsbsbsg77
g80
(g131
S'\x00\x00\x00\x00\x00\x00\x00\x00'
p4431
tp4432
Rp4433
sg78
g357
sg79
g0
(g1
g2
Ntp4434
Rp4435
(dp4436
g6
I1
sg7
Nsg77
Nsg78
Nsg79
Nsbsbsg77
g80
(g84
S'\x00\x00\x00\x00\x00\x00\x00\x00'
p4437
tp4438
Rp4439
sg78
g125
sg79
g0
(g1
g2
Ntp4440
Rp4441
(dp4442
g6
I1
sg7
Nsg77
Nsg78
Nsg79
Nsbsbsbsbsbsbsg77
g80
(g84
S'\x00\x00\x00\x00\x00\x00\x00\x00'
p4443
tp4444
Rp4445
sg78
g343
sg79
g0
(g1
g2
Ntp4446
Rp4447
(dp4448
g6
I1
sg7
Nsg77
Nsg78
Nsg79
Nsbsbsg77
g80
(g84
S'\x00\x00\x00\x00\x00\x00\x00\x00'
p4449
tp4450
Rp4451
sg78
g350
sg79
g0
(g1
g2
Ntp4452
Rp4453
(dp4454
g6
I1
sg7
Nsg77
Nsg78
Nsg79
Nsbsbsg77
g80
(g84
S'\x00\x00\x00\x00\x00\x00\x00\x00'
p4455
tp4456
Rp4457
sg78
g90
sg79
g0
(g1
g2
Ntp4458
Rp4459
(dp4460
g6
I1
sg7
Nsg77
Nsg78
Nsg79
Nsbsbsg77
g80
(g84
S'\x00\x00\x00\x00\x00\x00\x00\x00'
p4461
tp4462
Rp4463
sg78
g1409
sg79
g0
(g1
g2
Ntp4464
Rp4465
(dp4466
g6
I1
sg7
Nsg77
Nsg78
Nsg79
Nsbsbsbsg77
g80
(g131
S'\x00\x00\x00\x00\x00\x00\x00\x00'
p4467
tp4468
Rp4469
sg78
g151
sg79
g0
(g1
g2
Ntp4470
Rp4471
(dp4472
g6
I1
sg7
Nsg77
Nsg78
Nsg79
Nsbsbsg77
g80
(g84
S'\x00\x00\x00\x00\x00\x00\x00\x00'
p4473
tp4474
Rp4475
sg78
g1416
sg79
g0
(g1
g2
Ntp4476
Rp4477
(dp4478
g6
I1
sg7
Nsg77
Nsg78
Nsg79
Nsbsbsg77
g80
(g131
S'\x00\x00\x00\x00\x00\x00.@'
p4479
tp4480
Rp4481
sg78
g1402
sg79
g0
(g1
g2
Ntp4482
Rp4483
(dp4484
g6
Nsg7
g0
(g1
g2
Ntp4485
Rp4486
(dp4487
g6
Nsg7
g0
(g1
g2
Ntp4488
Rp4489
(dp4490
g6
Nsg7
g0
(g1
g2
Ntp4491
Rp4492
(dp4493
g6
Nsg7
g0
(g1
g2
Ntp4494
Rp4495
(dp4496
g6
Nsg7
g0
(g1
g2
Ntp4497
Rp4498
(dp4499
g6
Nsg7
g0
(g1
g2
Ntp4500
Rp4501
(dp4502
g6
Nsg7
g0
(g1
g2
Ntp4503
Rp4504
(dp4505
g6
Nsg7
g0
(g1
g2
Ntp4506
Rp4507
(dp4508
g6
Nsg7
g0
(g1
g2
Ntp4509
Rp4510
(dp4511
g6
Nsg7
g0
(g1
g2
Ntp4512
Rp4513
(dp4514
g6
Nsg7
g0
(g1
g2
Ntp4515
Rp4516
(dp4517
g6
Nsg7
g0
(g1
g2
Ntp4518
Rp4519
(dp4520
g6
Nsg7
g0
(g1
g2
Ntp4521
Rp4522
(dp4523
g6
Nsg7
g0
(g1
g2
Ntp4524
Rp4525
(dp4526
g6
Nsg7
g0
(g1
g2
Ntp4527
Rp4528
(dp4529
g6
Nsg7
g0
(g1
g2
Ntp4530
Rp4531
(dp4532
g6
Nsg7
g0
(g1
g2
Ntp4533
Rp4534
(dp4535
g6
Nsg7
g0
(g1
g2
Ntp4536
Rp4537
(dp4538
g6
Nsg7
g0
(g1
g2
Ntp4539
Rp4540
(dp4541
g6
Nsg7
g0
(g1
g2
Ntp4542
Rp4543
(dp4544
g6
I0
sg7
Nsg77
Nsg78
Nsg79
Nsbsg77
g80
(g84
S'\x00\x00\x00\x00\x00\x00\x00\x00'
p4545
tp4546
Rp4547
sg78
g104
sg79
g0
(g1
g2
Ntp4548
Rp4549
(dp4550
g6
I1
sg7
Nsg77
Nsg78
Nsg79
Nsbsbsg77
g80
(g84
S'\x00\x00\x00\x00\x00\x00\x00\x00'
p4551
tp4552
Rp4553
sg78
g118
sg79
g0
(g1
g2
Ntp4554
Rp4555
(dp4556
g6
I1
sg7
Nsg77
Nsg78
Nsg79
Nsbsbsg77
g80
(g131
S'\x00\x00\x00\x00\x00\x00\xf0?'
p4557
tp4558
Rp4559
sg78
g137
sg79
g0
(g1
g2
Ntp4560
Rp4561
(dp4562
g6
I1
sg7
Nsg77
Nsg78
Nsg79
Nsbsbsg77
g80
(g84
S'\x00\x00\x00\x00\x00\x00\x00\x00'
p4563
tp4564
Rp4565
sg78
g144
sg79
g0
(g1
g2
Ntp4566
Rp4567
(dp4568
g6
I1
sg7
Nsg77
Nsg78
Nsg79
Nsbsbsg77
g80
(g131
S'\x00\x00\x00\x00\x00\xc0R@'
p4569
tp4570
Rp4571
sg78
g165
sg79
g0
(g1
g2
Ntp4572
Rp4573
(dp4574
g6
Nsg7
g0
(g1
g2
Ntp4575
Rp4576
(dp4577
g6
Nsg7
g0
(g1
g2
Ntp4578
Rp4579
(dp4580
g6
Nsg7
g0
(g1
g2
Ntp4581
Rp4582
(dp4583
g6
Nsg7
g0
(g1
g2
Ntp4584
Rp4585
(dp4586
g6
I0
sg7
Nsg77
Nsg78
Nsg79
Nsbsg77
g80
(g84
S'\x00\x00\x00\x00\x00\x00\x00\x00'
p4587
tp4588
Rp4589
sg78
g104
sg79
g0
(g1
g2
Ntp4590
Rp4591
(dp4592
g6
I1
sg7
Nsg77
Nsg78
Nsg79
Nsbsbsg77
g80
(g84
S'\x00\x00\x00\x00\x00\x00\x00\x00'
p4593
tp4594
Rp4595
sg78
g118
sg79
g0
(g1
g2
Ntp4596
Rp4597
(dp4598
g6
I1
sg7
Nsg77
Nsg78
Nsg79
Nsbsbsg77
g80
(g131
S'\x00\x00\x00\x00\x00\x00\xf0?'
p4599
tp4600
Rp4601
sg78
g137
sg79
g0
(g1
g2
Ntp4602
Rp4603
(dp4604
g6
I1
sg7
Nsg77
Nsg78
Nsg79
Nsbsbsg77
g80
(g84
S'\x00\x00\x00\x00\x00\x00\x00\x00'
p4605
tp4606
Rp4607
sg78
g144
sg79
g0
(g1
g2
Ntp4608
Rp4609
(dp4610
g6
I1
sg7
Nsg77
Nsg78
Nsg79
Nsbsbsbsg77
g80
(g84
S'\x01\x00\x00\x00\x00\x00\x00\x00'
p4611
tp4612
Rp4613
sg78
g158
sg79
g0
(g1
g2
Ntp4614
Rp4615
(dp4616
g6
Nsg7
g0
(g1
g2
Ntp4617
Rp4618
(dp4619
g6
Nsg7
g0
(g1
g2
Ntp4620
Rp4621
(dp4622
g6
Nsg7
g0
(g1
g2
Ntp4623
Rp4624
(dp4625
g6
Nsg7
g0
(g1
g2
Ntp4626
Rp4627
(dp4628
g6
Nsg7
g0
(g1
g2
Ntp4629
Rp4630
(dp4631
g6
I0
sg7
Nsg77
Nsg78
Nsg79
Nsbsg77
g80
(g84
S'\x00\x00\x00\x00\x00\x00\x00\x00'
p4632
tp4633
Rp4634
sg78
g104
sg79
g0
(g1
g2
Ntp4635
Rp4636
(dp4637
g6
I1
sg7
Nsg77
Nsg78
Nsg79
Nsbsbsg77
g80
(g131
S'\x00\x00\x00\x00\x00\x00\xf0?'
p4638
tp4639
Rp4640
sg78
g137
sg79
g0
(g1
g2
Ntp4641
Rp4642
(dp4643
g6
I1
sg7
Nsg77
Nsg78
Nsg79
Nsbsbsg77
g80
(g84
S'\x00\x00\x00\x00\x00\x00\x00\x00'
p4644
tp4645
Rp4646
sg78
g144
sg79
g0
(g1
g2
Ntp4647
Rp4648
(dp4649
g6
I1
sg7
Nsg77
Nsg78
Nsg79
Nsbsbsg77
g80
(g84
S'\x00\x00\x00\x00\x00\x00\x00\x00'
p4650
tp4651
Rp4652
sg78
g118
sg79
g0
(g1
g2
Ntp4653
Rp4654
(dp4655
g6
I1
sg7
Nsg77
Nsg78
Nsg79
Nsbsbsg77
g80
(g131
S'\x00\x00\x00\x00\x00\x00Y@'
p4656
tp4657
Rp4658
sg78
g165
sg79
g0
(g1
g2
Ntp4659
Rp4660
(dp4661
g6
Nsg7
g0
(g1
g2
Ntp4662
Rp4663
(dp4664
g6
Nsg7
g0
(g1
g2
Ntp4665
Rp4666
(dp4667
g6
Nsg7
g0
(g1
g2
Ntp4668
Rp4669
(dp4670
g6
Nsg7
g0
(g1
g2
Ntp4671
Rp4672
(dp4673
g6
I0
sg7
Nsg77
Nsg78
Nsg79
Nsbsg77
g80
(g84
S'\x00\x00\x00\x00\x00\x00\x00\x00'
p4674
tp4675
Rp4676
sg78
g104
sg79
g0
(g1
g2
Ntp4677
Rp4678
(dp4679
g6
I1
sg7
Nsg77
Nsg78
Nsg79
Nsbsbsg77
g80
(g131
S'\x00\x00\x00\x00\x00\x00\xf0?'
p4680
tp4681
Rp4682
sg78
g137
sg79
g0
(g1
g2
Ntp4683
Rp4684
(dp4685
g6
I1
sg7
Nsg77
Nsg78
Nsg79
Nsbsbsg77
g80
(g84
S'\x00\x00\x00\x00\x00\x00\x00\x00'
p4686
tp4687
Rp4688
sg78
g144
sg79
g0
(g1
g2
Ntp4689
Rp4690
(dp4691
g6
I1
sg7
Nsg77
Nsg78
Nsg79
Nsbsbsg77
g80
(g84
S'\x00\x00\x00\x00\x00\x00\x00\x00'
p4692
tp4693
Rp4694
sg78
g118
sg79
g0
(g1
g2
Ntp4695
Rp4696
(dp4697
g6
I1
sg7
Nsg77
Nsg78
Nsg79
Nsbsbsbsbsg77
g80
(g131
S'\x00\x00\x00\x00\x00\x00\x00\x00'
p4698
tp4699
Rp4700
sg78
g151
sg79
g0
(g1
g2
Ntp4701
Rp4702
(dp4703
g6
I1
sg7
Nsg77
Nsg78
Nsg79
Nsbsbsg77
g80
(g84
S'\x00\x00\x00\x00\x00\x00\x00\x00'
p4704
tp4705
Rp4706
sg78
g343
sg79
g0
(g1
g2
Ntp4707
Rp4708
(dp4709
g6
I1
sg7
Nsg77
Nsg78
Nsg79
Nsbsbsg77
g80
(g84
S'\x00\x00\x00\x00\x00\x00\x00\x00'
p4710
tp4711
Rp4712
sg78
g350
sg79
g0
(g1
g2
Ntp4713
Rp4714
(dp4715
g6
I1
sg7
Nsg77
Nsg78
Nsg79
Nsbsbsg77
g80
(g84
S'\x00\x00\x00\x00\x00\x00\x00\x00'
p4716
tp4717
Rp4718
sg78
g1416
sg79
g0
(g1
g2
Ntp4719
Rp4720
(dp4721
g6
I1
sg7
Nsg77
Nsg78
Nsg79
Nsbsbsg77
g80
(g84
S'\x00\xca\x9a;\x00\x00\x00\x00'
p4722
tp4723
Rp4724
sg78
g551
sg79
g0
(g1
g2
Ntp4725
Rp4726
(dp4727
g6
Nsg7
g0
(g1
g2
Ntp4728
Rp4729
(dp4730
g6
Nsg7
g0
(g1
g2
Ntp4731
Rp4732
(dp4733
g6
Nsg7
g0
(g1
g2
Ntp4734
Rp4735
(dp4736
g6
Nsg7
g0
(g1
g2
Ntp4737
Rp4738
(dp4739
g6
Nsg7
g0
(g1
g2
Ntp4740
Rp4741
(dp4742
g6
Nsg7
g0
(g1
g2
Ntp4743
Rp4744
(dp4745
g6
Nsg7
g0
(g1
g2
Ntp4746
Rp4747
(dp4748
g6
Nsg7
g0
(g1
g2
Ntp4749
Rp4750
(dp4751
g6
Nsg7
g0
(g1
g2
Ntp4752
Rp4753
(dp4754
g6
Nsg7
g0
(g1
g2
Ntp4755
Rp4756
(dp4757
g6
I0
sg7
Nsg77
Nsg78
Nsg79
Nsbsg77
g80
(g84
S'\x00\x00\x00\x00\x00\x00\x00\x00'
p4758
tp4759
Rp4760
sg78
g104
sg79
g0
(g1
g2
Ntp4761
Rp4762
(dp4763
g6
I1
sg7
Nsg77
Nsg78
Nsg79
Nsbsbsg77
g80
(g131
S'\x00\x00\x00\x00\x00\x00\xf0?'
p4764
tp4765
Rp4766
sg78
g137
sg79
g0
(g1
g2
Ntp4767
Rp4768
(dp4769
g6
I1
sg7
Nsg77
Nsg78
Nsg79
Nsbsbsg77
g80
(g84
S'\x00\x00\x00\x00\x00\x00\x00\x00'
p4770
tp4771
Rp4772
sg78
g144
sg79
g0
(g1
g2
Ntp4773
Rp4774
(dp4775
g6
I1
sg7
Nsg77
Nsg78
Nsg79
Nsbsbsg77
g80
(g84
S'\x00\x00\x00\x00\x00\x00\x00\x00'
p4776
tp4777
Rp4778
sg78
g118
sg79
g0
(g1
g2
Ntp4779
Rp4780
(dp4781
g6
I1
sg7
Nsg77
Nsg78
Nsg79
Nsbsbsg77
g80
(g131
S'\x00\x00\x00\x00\x00\x00\x00\x00'
p4782
tp4783
Rp4784
sg78
g165
sg79
g0
(g1
g2
Ntp4785
Rp4786
(dp4787
g6
I1
sg7
Nsg77
Nsg78
Nsg79
Nsbsbsg77
g80
(g84
S'\x00\x00\x00\x00\x00\x00\x00\x00'
p4788
tp4789
Rp4790
sg78
g158
sg79
g0
(g1
g2
Ntp4791
Rp4792
(dp4793
g6
I1
sg7
Nsg77
Nsg78
Nsg79
Nsbsbsg77
g80
(g84
S'\x00\x00\x00\x00\x00\x00\x00\x00'
p4794
tp4795
Rp4796
sg78
g343
sg79
g0
(g1
g2
Ntp4797
Rp4798
(dp4799
g6
I1
sg7
Nsg77
Nsg78
Nsg79
Nsbsbsg77
g80
(g84
S'\x00\x00\x00\x00\x00\x00\x00\x00'
p4800
tp4801
Rp4802
sg78
g350
sg79
g0
(g1
g2
Ntp4803
Rp4804
(dp4805
g6
I1
sg7
Nsg77
Nsg78
Nsg79
Nsbsbsg77
g80
(g84
S'\x00\x00\x00\x00\x00\x00\x00\x00'
p4806
tp4807
Rp4808
sg78
g1416
sg79
g0
(g1
g2
Ntp4809
Rp4810
(dp4811
g6
I1
sg7
Nsg77
Nsg78
Nsg79
Nsbsbsg77
g80
(g131
S'\x00\x00\x00\x00\x00\x00\x00\x00'
p4812
tp4813
Rp4814
sg78
g151
sg79
g0
(g1
g2
Ntp4815
Rp4816
(dp4817
g6
I1
sg7
Nsg77
Nsg78
Nsg79
Nsbsbsbsg77
g80
(g84
S'\x00\x00\x00\x00\x00\x00\x00\x00'
p4818
tp4819
Rp4820
sg78
g1395
sg79
g0
(g1
g2
Ntp4821
Rp4822
(dp4823
g6
I1
sg7
Nsg77
Nsg78
Nsg79
Nsbsbsg77
g80
(g84
S'\x00\x00\x00\x00\x00\x00\x00\x00'
p4824
tp4825
Rp4826
sg78
g111
sg79
g0
(g1
g2
Ntp4827
Rp4828
(dp4829
g6
I1
sg7
Nsg77
Nsg78
Nsg79
Nsbsbsg77
g80
(g84
S'\x00\x00\x00\x00\x00\x00\x00\x00'
p4830
tp4831
Rp4832
sg78
g97
sg79
g0
(g1
g2
Ntp4833
Rp4834
(dp4835
g6
I1
sg7
Nsg77
Nsg78
Nsg79
Nsbsbsg77
g80
(g84
S'\x00\x00\x00\x00\x00\x00\x00\x00'
p4836
tp4837
Rp4838
sg78
g90
sg79
g0
(g1
g2
Ntp4839
Rp4840
(dp4841
g6
I1
sg7
Nsg77
Nsg78
Nsg79
Nsbsbsg77
g80
(g84
S'\x00\x00\x00\x00\x00\x00\x00\x00'
p4842
tp4843
Rp4844
sg78
g125
sg79
g0
(g1
g2
Ntp4845
Rp4846
(dp4847
g6
I1
sg7
Nsg77
Nsg78
Nsg79
Nsbsbsg77
g80
(g131
S'\x00\x00\x00\x00\x00\x00\x00\x00'
p4848
tp4849
Rp4850
sg78
g357
sg79
g0
(g1
g2
Ntp4851
Rp4852
(dp4853
g6
I1
sg7
Nsg77
Nsg78
Nsg79
Nsbsbsg77
g80
(g84
S'\x00\x00\x00\x00\x00\x00\x00\x00'
p4854
tp4855
Rp4856
sg78
g544
sg79
g0
(g1
g2
Ntp4857
Rp4858
(dp4859
g6
I1
sg7
Nsg77
Nsg78
Nsg79
Nsbsbsg77
g80
(g131
S'\x00\x00\x00\x00\x00\x00\x00\x00'
p4860
tp4861
Rp4862
sg78
g1423
sg79
g0
(g1
g2
Ntp4863
Rp4864
(dp4865
g6
I1
sg7
Nsg77
Nsg78
Nsg79
Nsbsbsg77
g80
(g84
S'\x00\x00\x00\x00\x00\x00\x00\x00'
p4866
tp4867
Rp4868
sg78
g1409
sg79
g0
(g1
g2
Ntp4869
Rp4870
(dp4871
g6
I1
sg7
Nsg77
Nsg78
Nsg79
Nsbsbsbsbsg77
g80
(g131
S'\x00\x00\x00\x00\x00\x00\x00\x00'
p4872
tp4873
Rp4874
sg78
S'avg_percent_stromal_cells'
p4875
sg79
g0
(g1
g2
Ntp4876
Rp4877
(dp4878
g6
I0
sg7
Nsg77
Nsg78
Nsg79
Nsbsb.