(dp0
S'stage_one'
p1
I0
sS'bias'
p2
I0
sS'avg_percent_stromal_cells'
p3
I0
sS'stage_threeA'
p4
I0
sS'stage_threeC'
p5
I0
sS'stage_threeB'
p6
I0
sS'stage_oneA'
p7
I0
sS'BMI'
p8
I0
sS'NearestMutation'
p9
cnumpy.core.multiarray
scalar
p10
(cnumpy
dtype
p11
(S'f8'
p12
I0
I1
tp13
Rp14
(I3
S'<'
p15
NNNI-1
I-1
I0
tp16
bS'\x1f\x04\x90\xea_\x81\xa5?'
p17
tp18
Rp19
sS'avg_percent_monocyte_infiltration'
p20
I0
sS'stage_four'
p21
I0
sS'avg_percent_lymphocyte_infiltration'
p22
I0
sS'stage_fourA'
p23
I0
sS'stage_two'
p24
I0
sS'stage_three'
p25
I0
sS'stage_twoC'
p26
I0
sS'stage_twoB'
p27
I0
sS'pathologic_stage'
p28
I0
sS'number_of_lymphnodes_examined'
p29
g10
(g14
S'A\xeb1(\x05\x03\xb7?'
p30
tp31
Rp32
sS'stage_twoA'
p33
I0
sS'age_at_initial_pathologic_diagnosis'
p34
I0
sS'avg_percent_tumor_cells'
p35
I0
sS'avg_percent_normal_cells'
p36
I0
s.