ccopy_reg
_reconstructor
p0
(c__main__
Node
p1
c__builtin__
object
p2
Ntp3
Rp4
(dp5
S'classification'
p6
NsS'right'
p7
g0
(g1
g2
Ntp8
Rp9
(dp10
g6
I1
sg7
NsS'feature_value'
p11
NsS'feature_index'
p12
NsS'left'
p13
Nsbsg11
cnumpy.core.multiarray
scalar
p14
(cnumpy
dtype
p15
(S'f8'
p16
I0
I1
tp17
Rp18
(I3
S'<'
p19
NNNI-1
I-1
I0
tp20
bS'\x00\x00\x00\x00\x00\x00T@'
p21
tp22
Rp23
sg12
S'avg_percent_tumor_cells'
p24
sg13
g0
(g1
g2
Ntp25
Rp26
(dp27
g6
Nsg7
g0
(g1
g2
Ntp28
Rp29
(dp30
g6
Nsg7
g0
(g1
g2
Ntp31
Rp32
(dp33
g6
Nsg7
g0
(g1
g2
Ntp34
Rp35
(dp36
g6
I1
sg7
Nsg11
Nsg12
Nsg13
Nsbsg11
g14
(g18
S'\x00\x00\x00\x00\x00\x00\x14@'
p37
tp38
Rp39
sg12
S'age_at_initial_pathologic_diagnosis'
p40
sg13
g0
(g1
g2
Ntp41
Rp42
(dp43
g6
Nsg7
g0
(g1
g2
Ntp44
Rp45
(dp46
g6
Nsg7
g0
(g1
g2
Ntp47
Rp48
(dp49
g6
Nsg7
g0
(g1
g2
Ntp50
Rp51
(dp52
g6
Nsg7
g0
(g1
g2
Ntp53
Rp54
(dp55
g6
Nsg7
g0
(g1
g2
Ntp56
Rp57
(dp58
g6
Nsg7
g0
(g1
g2
Ntp59
Rp60
(dp61
g6
Nsg7
g0
(g1
g2
Ntp62
Rp63
(dp64
g6
Nsg7
g0
(g1
g2
Ntp65
Rp66
(dp67
g6
Nsg7
g0
(g1
g2
Ntp68
Rp69
(dp70
g6
Nsg7
g0
(g1
g2
Ntp71
Rp72
(dp73
g6
I0
sg7
Nsg11
Nsg12
Nsg13
Nsbsg11
g14
(g15
(S'i8'
p74
I0
I1
tp75
Rp76
(I3
S'<'
p77
NNNI-1
I-1
I0
tp78
bS'\x00\x00\x00\x00\x00\x00\x00\x00'
p79
tp80
Rp81
sg12
S'pathologic_stage'
p82
sg13
g0
(g1
g2
Ntp83
Rp84
(dp85
g6
I1
sg7
Nsg11
Nsg12
Nsg13
Nsbsbsg11
g14
(g76
S'\x00\x00\x00\x00\x00\x00\x00\x00'
p86
tp87
Rp88
sg12
S'stage_one'
p89
sg13
g0
(g1
g2
Ntp90
Rp91
(dp92
g6
I1
sg7
Nsg11
Nsg12
Nsg13
Nsbsbsg11
g14
(g76
S'\x00\x00\x00\x00\x00\x00\x00\x00'
p93
tp94
Rp95
sg12
S'stage_three'
p96
sg13
g0
(g1
g2
Ntp97
Rp98
(dp99
g6
I1
sg7
Nsg11
Nsg12
Nsg13
Nsbsbsg11
g14
(g76
S'\x00\x00\x00\x00\x00\x00\x00\x00'
p100
tp101
Rp102
sg12
S'stage_four'
p103
sg13
g0
(g1
g2
Ntp104
Rp105
(dp106
g6
I1
sg7
Nsg11
Nsg12
Nsg13
Nsbsbsg11
g14
(g76
S'\x00\x00\x00\x00\x00\x00\x00\x00'
p107
tp108
Rp109
sg12
S'NearestMutation'
p110
sg13
g0
(g1
g2
Ntp111
Rp112
(dp113
g6
I1
sg7
Nsg11
Nsg12
Nsg13
Nsbsbsg11
g14
(g18
S'\x00\x00\x00\x00\x00\x00\x00\x00'
p114
tp115
Rp116
sg12
S'avg_percent_monocyte_infiltration'
p117
sg13
g0
(g1
g2
Ntp118
Rp119
(dp120
g6
I1
sg7
Nsg11
Nsg12
Nsg13
Nsbsbsg11
g14
(g76
S'\x00\x00\x00\x00\x00\x00\x00\x00'
p121
tp122
Rp123
sg12
S'stage_two'
p124
sg13
g0
(g1
g2
Ntp125
Rp126
(dp127
g6
I1
sg7
Nsg11
Nsg12
Nsg13
Nsbsbsg11
g14
(g18
S'\x00\x00\x00\x00\x00\x00\x00\x00'
p128
tp129
Rp130
sg12
S'avg_percent_normal_cells'
p131
sg13
g0
(g1
g2
Ntp132
Rp133
(dp134
g6
I1
sg7
Nsg11
Nsg12
Nsg13
Nsbsbsg11
g14
(g18
S'\x00\x00\x00\x00\x00\x00\x00\x00'
p135
tp136
Rp137
sg12
S'BMI'
p138
sg13
g0
(g1
g2
Ntp139
Rp140
(dp141
g6
I1
sg7
Nsg11
Nsg12
Nsg13
Nsbsbsg11
g14
(g18
S'\x00\x00\x00\x00\x00\x00\x00\x00'
p142
tp143
Rp144
sg12
S'avg_percent_lymphocyte_infiltration'
p145
sg13
g0
(g1
g2
Ntp146
Rp147
(dp148
g6
I1
sg7
Nsg11
Nsg12
Nsg13
Nsbsbsbsg11
g14
(g76
S'\x00\x00\x00\x00\x00\x00\x00\x00'
p149
tp150
Rp151
sg12
S'number_of_lymphnodes_examined'
p152
sg13
g0
(g1
g2
Ntp153
Rp154
(dp155
g6
I1
sg7
Nsg11
Nsg12
Nsg13
Nsbsbsg11
g14
(g18
S'\x00\x00\x00\x00\x00\x00\x00\x00'
p156
tp157
Rp158
sg12
S'avg_percent_stromal_cells'
p159
sg13
g0
(g1
g2
Ntp160
Rp161
(dp162
g6
I1
sg7
Nsg11
Nsg12
Nsg13
Nsbsbsb.